
ctarget:     file format elf64-x86-64


Disassembly of section .init:

0000000000400b98 <_init>:
  400b98:	48 83 ec 08          	sub    $0x8,%rsp
  400b9c:	e8 5b 02 00 00       	callq  400dfc <call_gmon_start>
  400ba1:	48 83 c4 08          	add    $0x8,%rsp
  400ba5:	c3                   	retq   

Disassembly of section .plt:

0000000000400bb0 <strcasecmp@plt-0x10>:
  400bb0:	ff 35 52 34 20 00    	pushq  0x203452(%rip)        # 604008 <_GLOBAL_OFFSET_TABLE_+0x8>
  400bb6:	ff 25 54 34 20 00    	jmpq   *0x203454(%rip)        # 604010 <_GLOBAL_OFFSET_TABLE_+0x10>
  400bbc:	0f 1f 40 00          	nopl   0x0(%rax)

0000000000400bc0 <strcasecmp@plt>:
  400bc0:	ff 25 52 34 20 00    	jmpq   *0x203452(%rip)        # 604018 <_GLOBAL_OFFSET_TABLE_+0x18>
  400bc6:	68 00 00 00 00       	pushq  $0x0
  400bcb:	e9 e0 ff ff ff       	jmpq   400bb0 <_init+0x18>

0000000000400bd0 <__errno_location@plt>:
  400bd0:	ff 25 4a 34 20 00    	jmpq   *0x20344a(%rip)        # 604020 <_GLOBAL_OFFSET_TABLE_+0x20>
  400bd6:	68 01 00 00 00       	pushq  $0x1
  400bdb:	e9 d0 ff ff ff       	jmpq   400bb0 <_init+0x18>

0000000000400be0 <srandom@plt>:
  400be0:	ff 25 42 34 20 00    	jmpq   *0x203442(%rip)        # 604028 <_GLOBAL_OFFSET_TABLE_+0x28>
  400be6:	68 02 00 00 00       	pushq  $0x2
  400beb:	e9 c0 ff ff ff       	jmpq   400bb0 <_init+0x18>

0000000000400bf0 <strncmp@plt>:
  400bf0:	ff 25 3a 34 20 00    	jmpq   *0x20343a(%rip)        # 604030 <_GLOBAL_OFFSET_TABLE_+0x30>
  400bf6:	68 03 00 00 00       	pushq  $0x3
  400bfb:	e9 b0 ff ff ff       	jmpq   400bb0 <_init+0x18>

0000000000400c00 <strcpy@plt>:
  400c00:	ff 25 32 34 20 00    	jmpq   *0x203432(%rip)        # 604038 <_GLOBAL_OFFSET_TABLE_+0x38>
  400c06:	68 04 00 00 00       	pushq  $0x4
  400c0b:	e9 a0 ff ff ff       	jmpq   400bb0 <_init+0x18>

0000000000400c10 <puts@plt>:
  400c10:	ff 25 2a 34 20 00    	jmpq   *0x20342a(%rip)        # 604040 <_GLOBAL_OFFSET_TABLE_+0x40>
  400c16:	68 05 00 00 00       	pushq  $0x5
  400c1b:	e9 90 ff ff ff       	jmpq   400bb0 <_init+0x18>

0000000000400c20 <write@plt>:
  400c20:	ff 25 22 34 20 00    	jmpq   *0x203422(%rip)        # 604048 <_GLOBAL_OFFSET_TABLE_+0x48>
  400c26:	68 06 00 00 00       	pushq  $0x6
  400c2b:	e9 80 ff ff ff       	jmpq   400bb0 <_init+0x18>

0000000000400c30 <mmap@plt>:
  400c30:	ff 25 1a 34 20 00    	jmpq   *0x20341a(%rip)        # 604050 <_GLOBAL_OFFSET_TABLE_+0x50>
  400c36:	68 07 00 00 00       	pushq  $0x7
  400c3b:	e9 70 ff ff ff       	jmpq   400bb0 <_init+0x18>

0000000000400c40 <printf@plt>:
  400c40:	ff 25 12 34 20 00    	jmpq   *0x203412(%rip)        # 604058 <_GLOBAL_OFFSET_TABLE_+0x58>
  400c46:	68 08 00 00 00       	pushq  $0x8
  400c4b:	e9 60 ff ff ff       	jmpq   400bb0 <_init+0x18>

0000000000400c50 <memset@plt>:
  400c50:	ff 25 0a 34 20 00    	jmpq   *0x20340a(%rip)        # 604060 <_GLOBAL_OFFSET_TABLE_+0x60>
  400c56:	68 09 00 00 00       	pushq  $0x9
  400c5b:	e9 50 ff ff ff       	jmpq   400bb0 <_init+0x18>

0000000000400c60 <alarm@plt>:
  400c60:	ff 25 02 34 20 00    	jmpq   *0x203402(%rip)        # 604068 <_GLOBAL_OFFSET_TABLE_+0x68>
  400c66:	68 0a 00 00 00       	pushq  $0xa
  400c6b:	e9 40 ff ff ff       	jmpq   400bb0 <_init+0x18>

0000000000400c70 <close@plt>:
  400c70:	ff 25 fa 33 20 00    	jmpq   *0x2033fa(%rip)        # 604070 <_GLOBAL_OFFSET_TABLE_+0x70>
  400c76:	68 0b 00 00 00       	pushq  $0xb
  400c7b:	e9 30 ff ff ff       	jmpq   400bb0 <_init+0x18>

0000000000400c80 <read@plt>:
  400c80:	ff 25 f2 33 20 00    	jmpq   *0x2033f2(%rip)        # 604078 <_GLOBAL_OFFSET_TABLE_+0x78>
  400c86:	68 0c 00 00 00       	pushq  $0xc
  400c8b:	e9 20 ff ff ff       	jmpq   400bb0 <_init+0x18>

0000000000400c90 <__libc_start_main@plt>:
  400c90:	ff 25 ea 33 20 00    	jmpq   *0x2033ea(%rip)        # 604080 <_GLOBAL_OFFSET_TABLE_+0x80>
  400c96:	68 0d 00 00 00       	pushq  $0xd
  400c9b:	e9 10 ff ff ff       	jmpq   400bb0 <_init+0x18>

0000000000400ca0 <memcpy@plt>:
  400ca0:	ff 25 e2 33 20 00    	jmpq   *0x2033e2(%rip)        # 604088 <_GLOBAL_OFFSET_TABLE_+0x88>
  400ca6:	68 0e 00 00 00       	pushq  $0xe
  400cab:	e9 00 ff ff ff       	jmpq   400bb0 <_init+0x18>

0000000000400cb0 <signal@plt>:
  400cb0:	ff 25 da 33 20 00    	jmpq   *0x2033da(%rip)        # 604090 <_GLOBAL_OFFSET_TABLE_+0x90>
  400cb6:	68 0f 00 00 00       	pushq  $0xf
  400cbb:	e9 f0 fe ff ff       	jmpq   400bb0 <_init+0x18>

0000000000400cc0 <gethostbyname@plt>:
  400cc0:	ff 25 d2 33 20 00    	jmpq   *0x2033d2(%rip)        # 604098 <_GLOBAL_OFFSET_TABLE_+0x98>
  400cc6:	68 10 00 00 00       	pushq  $0x10
  400ccb:	e9 e0 fe ff ff       	jmpq   400bb0 <_init+0x18>

0000000000400cd0 <fprintf@plt>:
  400cd0:	ff 25 ca 33 20 00    	jmpq   *0x2033ca(%rip)        # 6040a0 <_GLOBAL_OFFSET_TABLE_+0xa0>
  400cd6:	68 11 00 00 00       	pushq  $0x11
  400cdb:	e9 d0 fe ff ff       	jmpq   400bb0 <_init+0x18>

0000000000400ce0 <strtol@plt>:
  400ce0:	ff 25 c2 33 20 00    	jmpq   *0x2033c2(%rip)        # 6040a8 <_GLOBAL_OFFSET_TABLE_+0xa8>
  400ce6:	68 12 00 00 00       	pushq  $0x12
  400ceb:	e9 c0 fe ff ff       	jmpq   400bb0 <_init+0x18>

0000000000400cf0 <time@plt>:
  400cf0:	ff 25 ba 33 20 00    	jmpq   *0x2033ba(%rip)        # 6040b0 <_GLOBAL_OFFSET_TABLE_+0xb0>
  400cf6:	68 13 00 00 00       	pushq  $0x13
  400cfb:	e9 b0 fe ff ff       	jmpq   400bb0 <_init+0x18>

0000000000400d00 <random@plt>:
  400d00:	ff 25 b2 33 20 00    	jmpq   *0x2033b2(%rip)        # 6040b8 <_GLOBAL_OFFSET_TABLE_+0xb8>
  400d06:	68 14 00 00 00       	pushq  $0x14
  400d0b:	e9 a0 fe ff ff       	jmpq   400bb0 <_init+0x18>

0000000000400d10 <_IO_getc@plt>:
  400d10:	ff 25 aa 33 20 00    	jmpq   *0x2033aa(%rip)        # 6040c0 <_GLOBAL_OFFSET_TABLE_+0xc0>
  400d16:	68 15 00 00 00       	pushq  $0x15
  400d1b:	e9 90 fe ff ff       	jmpq   400bb0 <_init+0x18>

0000000000400d20 <__isoc99_sscanf@plt>:
  400d20:	ff 25 a2 33 20 00    	jmpq   *0x2033a2(%rip)        # 6040c8 <_GLOBAL_OFFSET_TABLE_+0xc8>
  400d26:	68 16 00 00 00       	pushq  $0x16
  400d2b:	e9 80 fe ff ff       	jmpq   400bb0 <_init+0x18>

0000000000400d30 <munmap@plt>:
  400d30:	ff 25 9a 33 20 00    	jmpq   *0x20339a(%rip)        # 6040d0 <_GLOBAL_OFFSET_TABLE_+0xd0>
  400d36:	68 17 00 00 00       	pushq  $0x17
  400d3b:	e9 70 fe ff ff       	jmpq   400bb0 <_init+0x18>

0000000000400d40 <memmove@plt>:
  400d40:	ff 25 92 33 20 00    	jmpq   *0x203392(%rip)        # 6040d8 <_GLOBAL_OFFSET_TABLE_+0xd8>
  400d46:	68 18 00 00 00       	pushq  $0x18
  400d4b:	e9 60 fe ff ff       	jmpq   400bb0 <_init+0x18>

0000000000400d50 <fopen@plt>:
  400d50:	ff 25 8a 33 20 00    	jmpq   *0x20338a(%rip)        # 6040e0 <_GLOBAL_OFFSET_TABLE_+0xe0>
  400d56:	68 19 00 00 00       	pushq  $0x19
  400d5b:	e9 50 fe ff ff       	jmpq   400bb0 <_init+0x18>

0000000000400d60 <getopt@plt>:
  400d60:	ff 25 82 33 20 00    	jmpq   *0x203382(%rip)        # 6040e8 <_GLOBAL_OFFSET_TABLE_+0xe8>
  400d66:	68 1a 00 00 00       	pushq  $0x1a
  400d6b:	e9 40 fe ff ff       	jmpq   400bb0 <_init+0x18>

0000000000400d70 <strtoul@plt>:
  400d70:	ff 25 7a 33 20 00    	jmpq   *0x20337a(%rip)        # 6040f0 <_GLOBAL_OFFSET_TABLE_+0xf0>
  400d76:	68 1b 00 00 00       	pushq  $0x1b
  400d7b:	e9 30 fe ff ff       	jmpq   400bb0 <_init+0x18>

0000000000400d80 <gethostname@plt>:
  400d80:	ff 25 72 33 20 00    	jmpq   *0x203372(%rip)        # 6040f8 <_GLOBAL_OFFSET_TABLE_+0xf8>
  400d86:	68 1c 00 00 00       	pushq  $0x1c
  400d8b:	e9 20 fe ff ff       	jmpq   400bb0 <_init+0x18>

0000000000400d90 <sprintf@plt>:
  400d90:	ff 25 6a 33 20 00    	jmpq   *0x20336a(%rip)        # 604100 <_GLOBAL_OFFSET_TABLE_+0x100>
  400d96:	68 1d 00 00 00       	pushq  $0x1d
  400d9b:	e9 10 fe ff ff       	jmpq   400bb0 <_init+0x18>

0000000000400da0 <exit@plt>:
  400da0:	ff 25 62 33 20 00    	jmpq   *0x203362(%rip)        # 604108 <_GLOBAL_OFFSET_TABLE_+0x108>
  400da6:	68 1e 00 00 00       	pushq  $0x1e
  400dab:	e9 00 fe ff ff       	jmpq   400bb0 <_init+0x18>

0000000000400db0 <connect@plt>:
  400db0:	ff 25 5a 33 20 00    	jmpq   *0x20335a(%rip)        # 604110 <_GLOBAL_OFFSET_TABLE_+0x110>
  400db6:	68 1f 00 00 00       	pushq  $0x1f
  400dbb:	e9 f0 fd ff ff       	jmpq   400bb0 <_init+0x18>

0000000000400dc0 <socket@plt>:
  400dc0:	ff 25 52 33 20 00    	jmpq   *0x203352(%rip)        # 604118 <_GLOBAL_OFFSET_TABLE_+0x118>
  400dc6:	68 20 00 00 00       	pushq  $0x20
  400dcb:	e9 e0 fd ff ff       	jmpq   400bb0 <_init+0x18>

Disassembly of section .text:

0000000000400dd0 <_start>:
  400dd0:	31 ed                	xor    %ebp,%ebp
  400dd2:	49 89 d1             	mov    %rdx,%r9
  400dd5:	5e                   	pop    %rsi
  400dd6:	48 89 e2             	mov    %rsp,%rdx
  400dd9:	48 83 e4 f0          	and    $0xfffffffffffffff0,%rsp
  400ddd:	50                   	push   %rax
  400dde:	54                   	push   %rsp
  400ddf:	49 c7 c0 c0 2a 40 00 	mov    $0x402ac0,%r8
  400de6:	48 c7 c1 d0 2a 40 00 	mov    $0x402ad0,%rcx
  400ded:	48 c7 c7 60 10 40 00 	mov    $0x401060,%rdi
  400df4:	e8 97 fe ff ff       	callq  400c90 <__libc_start_main@plt>
  400df9:	f4                   	hlt    
  400dfa:	90                   	nop
  400dfb:	90                   	nop

0000000000400dfc <call_gmon_start>:
  400dfc:	48 83 ec 08          	sub    $0x8,%rsp
  400e00:	48 8b 05 f1 31 20 00 	mov    0x2031f1(%rip),%rax        # 603ff8 <_DYNAMIC+0x1d0>
  400e07:	48 85 c0             	test   %rax,%rax
  400e0a:	74 02                	je     400e0e <call_gmon_start+0x12>
  400e0c:	ff d0                	callq  *%rax
  400e0e:	48 83 c4 08          	add    $0x8,%rsp
  400e12:	c3                   	retq   
  400e13:	66 2e 0f 1f 84 00 00 	nopw   %cs:0x0(%rax,%rax,1)
  400e1a:	00 00 00 
  400e1d:	0f 1f 00             	nopl   (%rax)

0000000000400e20 <deregister_tm_clones>:
  400e20:	b8 90 44 60 00       	mov    $0x604490,%eax
  400e25:	48 3d 90 44 60 00    	cmp    $0x604490,%rax
  400e2b:	74 13                	je     400e40 <deregister_tm_clones+0x20>
  400e2d:	b8 00 00 00 00       	mov    $0x0,%eax
  400e32:	48 85 c0             	test   %rax,%rax
  400e35:	74 09                	je     400e40 <deregister_tm_clones+0x20>
  400e37:	bf 90 44 60 00       	mov    $0x604490,%edi
  400e3c:	ff e0                	jmpq   *%rax
  400e3e:	66 90                	xchg   %ax,%ax
  400e40:	c3                   	retq   
  400e41:	0f 1f 44 00 00       	nopl   0x0(%rax,%rax,1)
  400e46:	66 2e 0f 1f 84 00 00 	nopw   %cs:0x0(%rax,%rax,1)
  400e4d:	00 00 00 

0000000000400e50 <register_tm_clones>:
  400e50:	be 90 44 60 00       	mov    $0x604490,%esi
  400e55:	48 81 ee 90 44 60 00 	sub    $0x604490,%rsi
  400e5c:	48 c1 fe 03          	sar    $0x3,%rsi
  400e60:	48 89 f0             	mov    %rsi,%rax
  400e63:	48 c1 e8 3f          	shr    $0x3f,%rax
  400e67:	48 01 c6             	add    %rax,%rsi
  400e6a:	48 d1 fe             	sar    %rsi
  400e6d:	74 11                	je     400e80 <register_tm_clones+0x30>
  400e6f:	b8 00 00 00 00       	mov    $0x0,%eax
  400e74:	48 85 c0             	test   %rax,%rax
  400e77:	74 07                	je     400e80 <register_tm_clones+0x30>
  400e79:	bf 90 44 60 00       	mov    $0x604490,%edi
  400e7e:	ff e0                	jmpq   *%rax
  400e80:	c3                   	retq   
  400e81:	0f 1f 44 00 00       	nopl   0x0(%rax,%rax,1)
  400e86:	66 2e 0f 1f 84 00 00 	nopw   %cs:0x0(%rax,%rax,1)
  400e8d:	00 00 00 

0000000000400e90 <__do_global_dtors_aux>:
  400e90:	80 3d 39 36 20 00 00 	cmpb   $0x0,0x203639(%rip)        # 6044d0 <completed.7182>
  400e97:	75 17                	jne    400eb0 <__do_global_dtors_aux+0x20>
  400e99:	55                   	push   %rbp
  400e9a:	48 89 e5             	mov    %rsp,%rbp
  400e9d:	e8 7e ff ff ff       	callq  400e20 <deregister_tm_clones>
  400ea2:	c6 05 27 36 20 00 01 	movb   $0x1,0x203627(%rip)        # 6044d0 <completed.7182>
  400ea9:	5d                   	pop    %rbp
  400eaa:	c3                   	retq   
  400eab:	0f 1f 44 00 00       	nopl   0x0(%rax,%rax,1)
  400eb0:	c3                   	retq   
  400eb1:	0f 1f 44 00 00       	nopl   0x0(%rax,%rax,1)
  400eb6:	66 2e 0f 1f 84 00 00 	nopw   %cs:0x0(%rax,%rax,1)
  400ebd:	00 00 00 

0000000000400ec0 <frame_dummy>:
  400ec0:	eb 8e                	jmp    400e50 <register_tm_clones>

0000000000400ec2 <usage>:
  400ec2:	48 83 ec 08          	sub    $0x8,%rsp
  400ec6:	48 89 fe             	mov    %rdi,%rsi
  400ec9:	83 3d 38 36 20 00 00 	cmpl   $0x0,0x203638(%rip)        # 604508 <is_checker>
  400ed0:	74 41                	je     400f13 <usage+0x51>
  400ed2:	bf 80 2b 40 00       	mov    $0x402b80,%edi
  400ed7:	b8 00 00 00 00       	mov    $0x0,%eax
  400edc:	e8 5f fd ff ff       	callq  400c40 <printf@plt>
  400ee1:	bf b8 2b 40 00       	mov    $0x402bb8,%edi
  400ee6:	e8 25 fd ff ff       	callq  400c10 <puts@plt>
  400eeb:	bf f0 2c 40 00       	mov    $0x402cf0,%edi
  400ef0:	e8 1b fd ff ff       	callq  400c10 <puts@plt>
  400ef5:	bf e0 2b 40 00       	mov    $0x402be0,%edi
  400efa:	e8 11 fd ff ff       	callq  400c10 <puts@plt>
  400eff:	bf 0a 2d 40 00       	mov    $0x402d0a,%edi
  400f04:	e8 07 fd ff ff       	callq  400c10 <puts@plt>
  400f09:	bf 00 00 00 00       	mov    $0x0,%edi
  400f0e:	e8 8d fe ff ff       	callq  400da0 <exit@plt>
  400f13:	bf 26 2d 40 00       	mov    $0x402d26,%edi
  400f18:	b8 00 00 00 00       	mov    $0x0,%eax
  400f1d:	e8 1e fd ff ff       	callq  400c40 <printf@plt>
  400f22:	bf 08 2c 40 00       	mov    $0x402c08,%edi
  400f27:	e8 e4 fc ff ff       	callq  400c10 <puts@plt>
  400f2c:	bf 30 2c 40 00       	mov    $0x402c30,%edi
  400f31:	e8 da fc ff ff       	callq  400c10 <puts@plt>
  400f36:	bf 44 2d 40 00       	mov    $0x402d44,%edi
  400f3b:	e8 d0 fc ff ff       	callq  400c10 <puts@plt>
  400f40:	eb c7                	jmp    400f09 <usage+0x47>

0000000000400f42 <initialize_target>:
  400f42:	55                   	push   %rbp
  400f43:	53                   	push   %rbx
  400f44:	48 81 ec 08 21 00 00 	sub    $0x2108,%rsp
  400f4b:	89 f5                	mov    %esi,%ebp
  400f4d:	89 3d a5 35 20 00    	mov    %edi,0x2035a5(%rip)        # 6044f8 <check_level>
  400f53:	8b 3d ef 31 20 00    	mov    0x2031ef(%rip),%edi        # 604148 <target_id>
  400f59:	e8 39 1b 00 00       	callq  402a97 <gencookie>
  400f5e:	89 05 a0 35 20 00    	mov    %eax,0x2035a0(%rip)        # 604504 <cookie>
  400f64:	89 c7                	mov    %eax,%edi
  400f66:	e8 2c 1b 00 00       	callq  402a97 <gencookie>
  400f6b:	89 05 8f 35 20 00    	mov    %eax,0x20358f(%rip)        # 604500 <authkey>
  400f71:	8b 05 d1 31 20 00    	mov    0x2031d1(%rip),%eax        # 604148 <target_id>
  400f77:	8d 78 01             	lea    0x1(%rax),%edi
  400f7a:	e8 61 fc ff ff       	callq  400be0 <srandom@plt>
  400f7f:	e8 7c fd ff ff       	callq  400d00 <random@plt>
  400f84:	89 c7                	mov    %eax,%edi
  400f86:	e8 8d 02 00 00       	callq  401218 <scramble>
  400f8b:	89 c3                	mov    %eax,%ebx
  400f8d:	85 ed                	test   %ebp,%ebp
  400f8f:	75 3d                	jne    400fce <initialize_target+0x8c>
  400f91:	b8 00 00 00 00       	mov    $0x0,%eax
  400f96:	01 d8                	add    %ebx,%eax
  400f98:	0f b7 c0             	movzwl %ax,%eax
  400f9b:	8d 04 c5 00 01 00 00 	lea    0x100(,%rax,8),%eax
  400fa2:	89 c0                	mov    %eax,%eax
  400fa4:	48 89 05 d5 34 20 00 	mov    %rax,0x2034d5(%rip)        # 604480 <buf_offset>
  400fab:	c6 05 76 41 20 00 63 	movb   $0x63,0x204176(%rip)        # 605128 <target_prefix>
  400fb2:	83 3d cf 34 20 00 00 	cmpl   $0x0,0x2034cf(%rip)        # 604488 <notify>
  400fb9:	74 09                	je     400fc4 <initialize_target+0x82>
  400fbb:	83 3d 46 35 20 00 00 	cmpl   $0x0,0x203546(%rip)        # 604508 <is_checker>
  400fc2:	74 22                	je     400fe6 <initialize_target+0xa4>
  400fc4:	48 81 c4 08 21 00 00 	add    $0x2108,%rsp
  400fcb:	5b                   	pop    %rbx
  400fcc:	5d                   	pop    %rbp
  400fcd:	c3                   	retq   
  400fce:	bf 00 00 00 00       	mov    $0x0,%edi
  400fd3:	e8 18 fd ff ff       	callq  400cf0 <time@plt>
  400fd8:	89 c7                	mov    %eax,%edi
  400fda:	e8 01 fc ff ff       	callq  400be0 <srandom@plt>
  400fdf:	e8 1c fd ff ff       	callq  400d00 <random@plt>
  400fe4:	eb b0                	jmp    400f96 <initialize_target+0x54>
  400fe6:	be 00 01 00 00       	mov    $0x100,%esi
  400feb:	48 89 e7             	mov    %rsp,%rdi
  400fee:	e8 8d fd ff ff       	callq  400d80 <gethostname@plt>
  400ff3:	89 c3                	mov    %eax,%ebx
  400ff5:	85 c0                	test   %eax,%eax
  400ff7:	75 21                	jne    40101a <initialize_target+0xd8>
  400ff9:	48 63 c3             	movslq %ebx,%rax
  400ffc:	48 8b 3c c5 60 41 60 	mov    0x604160(,%rax,8),%rdi
  401003:	00 
  401004:	48 85 ff             	test   %rdi,%rdi
  401007:	74 25                	je     40102e <initialize_target+0xec>
  401009:	48 89 e6             	mov    %rsp,%rsi
  40100c:	e8 af fb ff ff       	callq  400bc0 <strcasecmp@plt>
  401011:	85 c0                	test   %eax,%eax
  401013:	74 19                	je     40102e <initialize_target+0xec>
  401015:	83 c3 01             	add    $0x1,%ebx
  401018:	eb df                	jmp    400ff9 <initialize_target+0xb7>
  40101a:	bf 60 2c 40 00       	mov    $0x402c60,%edi
  40101f:	e8 ec fb ff ff       	callq  400c10 <puts@plt>
  401024:	bf 08 00 00 00       	mov    $0x8,%edi
  401029:	e8 72 fd ff ff       	callq  400da0 <exit@plt>
  40102e:	48 8d bc 24 00 01 00 	lea    0x100(%rsp),%rdi
  401035:	00 
  401036:	e8 e6 17 00 00       	callq  402821 <init_driver>
  40103b:	85 c0                	test   %eax,%eax
  40103d:	79 85                	jns    400fc4 <initialize_target+0x82>
  40103f:	48 8d b4 24 00 01 00 	lea    0x100(%rsp),%rsi
  401046:	00 
  401047:	bf 98 2c 40 00       	mov    $0x402c98,%edi
  40104c:	b8 00 00 00 00       	mov    $0x0,%eax
  401051:	e8 ea fb ff ff       	callq  400c40 <printf@plt>
  401056:	bf 08 00 00 00       	mov    $0x8,%edi
  40105b:	e8 40 fd ff ff       	callq  400da0 <exit@plt>

0000000000401060 <main>:
  401060:	41 56                	push   %r14
  401062:	41 55                	push   %r13
  401064:	41 54                	push   %r12
  401066:	55                   	push   %rbp
  401067:	53                   	push   %rbx
  401068:	89 fd                	mov    %edi,%ebp
  40106a:	48 89 f3             	mov    %rsi,%rbx
  40106d:	be 02 1c 40 00       	mov    $0x401c02,%esi
  401072:	bf 0b 00 00 00       	mov    $0xb,%edi
  401077:	e8 34 fc ff ff       	callq  400cb0 <signal@plt>
  40107c:	be b4 1b 40 00       	mov    $0x401bb4,%esi
  401081:	bf 07 00 00 00       	mov    $0x7,%edi
  401086:	e8 25 fc ff ff       	callq  400cb0 <signal@plt>
  40108b:	be 50 1c 40 00       	mov    $0x401c50,%esi
  401090:	bf 04 00 00 00       	mov    $0x4,%edi
  401095:	e8 16 fc ff ff       	callq  400cb0 <signal@plt>
  40109a:	83 3d 67 34 20 00 00 	cmpl   $0x0,0x203467(%rip)        # 604508 <is_checker>
  4010a1:	75 25                	jne    4010c8 <main+0x68>
  4010a3:	41 bc 65 2d 40 00    	mov    $0x402d65,%r12d
  4010a9:	48 8b 05 f0 33 20 00 	mov    0x2033f0(%rip),%rax        # 6044a0 <stdin@@GLIBC_2.2.5>
  4010b0:	48 89 05 39 34 20 00 	mov    %rax,0x203439(%rip)        # 6044f0 <infile>
  4010b7:	41 bd 00 00 00 00    	mov    $0x0,%r13d
  4010bd:	41 be 00 00 00 00    	mov    $0x0,%r14d
  4010c3:	e9 81 00 00 00       	jmpq   401149 <main+0xe9>
  4010c8:	be 9e 1c 40 00       	mov    $0x401c9e,%esi
  4010cd:	bf 0e 00 00 00       	mov    $0xe,%edi
  4010d2:	e8 d9 fb ff ff       	callq  400cb0 <signal@plt>
  4010d7:	bf 05 00 00 00       	mov    $0x5,%edi
  4010dc:	e8 7f fb ff ff       	callq  400c60 <alarm@plt>
  4010e1:	41 bc 5d 2d 40 00    	mov    $0x402d5d,%r12d
  4010e7:	eb c0                	jmp    4010a9 <main+0x49>
  4010e9:	48 8b 3b             	mov    (%rbx),%rdi
  4010ec:	e8 d1 fd ff ff       	callq  400ec2 <usage>
  4010f1:	be 05 30 40 00       	mov    $0x403005,%esi
  4010f6:	48 8b 3d c3 33 20 00 	mov    0x2033c3(%rip),%rdi        # 6044c0 <optarg@@GLIBC_2.2.5>
  4010fd:	e8 4e fc ff ff       	callq  400d50 <fopen@plt>
  401102:	48 89 05 e7 33 20 00 	mov    %rax,0x2033e7(%rip)        # 6044f0 <infile>
  401109:	48 85 c0             	test   %rax,%rax
  40110c:	75 3b                	jne    401149 <main+0xe9>
  40110e:	48 8b 15 ab 33 20 00 	mov    0x2033ab(%rip),%rdx        # 6044c0 <optarg@@GLIBC_2.2.5>
  401115:	be 6a 2d 40 00       	mov    $0x402d6a,%esi
  40111a:	48 8b 3d a7 33 20 00 	mov    0x2033a7(%rip),%rdi        # 6044c8 <stderr@@GLIBC_2.2.5>
  401121:	e8 aa fb ff ff       	callq  400cd0 <fprintf@plt>
  401126:	b8 01 00 00 00       	mov    $0x1,%eax
  40112b:	e9 c1 00 00 00       	jmpq   4011f1 <main+0x191>
  401130:	ba 10 00 00 00       	mov    $0x10,%edx
  401135:	be 00 00 00 00       	mov    $0x0,%esi
  40113a:	48 8b 3d 7f 33 20 00 	mov    0x20337f(%rip),%rdi        # 6044c0 <optarg@@GLIBC_2.2.5>
  401141:	e8 2a fc ff ff       	callq  400d70 <strtoul@plt>
  401146:	41 89 c6             	mov    %eax,%r14d
  401149:	4c 89 e2             	mov    %r12,%rdx
  40114c:	48 89 de             	mov    %rbx,%rsi
  40114f:	89 ef                	mov    %ebp,%edi
  401151:	e8 0a fc ff ff       	callq  400d60 <getopt@plt>
  401156:	3c ff                	cmp    $0xff,%al
  401158:	74 52                	je     4011ac <main+0x14c>
  40115a:	0f be f0             	movsbl %al,%esi
  40115d:	83 e8 61             	sub    $0x61,%eax
  401160:	3c 10                	cmp    $0x10,%al
  401162:	77 31                	ja     401195 <main+0x135>
  401164:	0f b6 c0             	movzbl %al,%eax
  401167:	ff 24 c5 a8 2d 40 00 	jmpq   *0x402da8(,%rax,8)
  40116e:	ba 0a 00 00 00       	mov    $0xa,%edx
  401173:	be 00 00 00 00       	mov    $0x0,%esi
  401178:	48 8b 3d 41 33 20 00 	mov    0x203341(%rip),%rdi        # 6044c0 <optarg@@GLIBC_2.2.5>
  40117f:	e8 5c fb ff ff       	callq  400ce0 <strtol@plt>
  401184:	41 89 c5             	mov    %eax,%r13d
  401187:	eb c0                	jmp    401149 <main+0xe9>
  401189:	c7 05 f5 32 20 00 00 	movl   $0x0,0x2032f5(%rip)        # 604488 <notify>
  401190:	00 00 00 
  401193:	eb b4                	jmp    401149 <main+0xe9>
  401195:	bf 87 2d 40 00       	mov    $0x402d87,%edi
  40119a:	b8 00 00 00 00       	mov    $0x0,%eax
  40119f:	e8 9c fa ff ff       	callq  400c40 <printf@plt>
  4011a4:	48 8b 3b             	mov    (%rbx),%rdi
  4011a7:	e8 16 fd ff ff       	callq  400ec2 <usage>
  4011ac:	be 00 00 00 00       	mov    $0x0,%esi
  4011b1:	44 89 ef             	mov    %r13d,%edi
  4011b4:	e8 89 fd ff ff       	callq  400f42 <initialize_target>
  4011b9:	83 3d 48 33 20 00 00 	cmpl   $0x0,0x203348(%rip)        # 604508 <is_checker>
  4011c0:	74 09                	je     4011cb <main+0x16b>
  4011c2:	44 39 35 37 33 20 00 	cmp    %r14d,0x203337(%rip)        # 604500 <authkey>
  4011c9:	75 2f                	jne    4011fa <main+0x19a>
  4011cb:	8b 35 33 33 20 00    	mov    0x203333(%rip),%esi        # 604504 <cookie>
  4011d1:	bf 9a 2d 40 00       	mov    $0x402d9a,%edi
  4011d6:	b8 00 00 00 00       	mov    $0x0,%eax
  4011db:	e8 60 fa ff ff       	callq  400c40 <printf@plt>
  4011e0:	48 8b 3d 99 32 20 00 	mov    0x203299(%rip),%rdi        # 604480 <buf_offset>
  4011e7:	e8 83 0b 00 00       	callq  401d6f <stable_launch>
  4011ec:	b8 00 00 00 00       	mov    $0x0,%eax
  4011f1:	5b                   	pop    %rbx
  4011f2:	5d                   	pop    %rbp
  4011f3:	41 5c                	pop    %r12
  4011f5:	41 5d                	pop    %r13
  4011f7:	41 5e                	pop    %r14
  4011f9:	c3                   	retq   
  4011fa:	44 89 f6             	mov    %r14d,%esi
  4011fd:	bf c0 2c 40 00       	mov    $0x402cc0,%edi
  401202:	b8 00 00 00 00       	mov    $0x0,%eax
  401207:	e8 34 fa ff ff       	callq  400c40 <printf@plt>
  40120c:	b8 00 00 00 00       	mov    $0x0,%eax
  401211:	e8 a2 06 00 00       	callq  4018b8 <check_fail>
  401216:	eb b3                	jmp    4011cb <main+0x16b>

0000000000401218 <scramble>:
  401218:	b8 00 00 00 00       	mov    $0x0,%eax
  40121d:	83 f8 09             	cmp    $0x9,%eax
  401220:	77 13                	ja     401235 <scramble+0x1d>
  401222:	69 d0 be 1c 00 00    	imul   $0x1cbe,%eax,%edx
  401228:	01 fa                	add    %edi,%edx
  40122a:	89 c1                	mov    %eax,%ecx
  40122c:	89 54 8c d0          	mov    %edx,-0x30(%rsp,%rcx,4)
  401230:	83 c0 01             	add    $0x1,%eax
  401233:	eb e8                	jmp    40121d <scramble+0x5>
  401235:	8b 44 24 ec          	mov    -0x14(%rsp),%eax
  401239:	69 c0 73 71 00 00    	imul   $0x7173,%eax,%eax
  40123f:	89 44 24 ec          	mov    %eax,-0x14(%rsp)
  401243:	8b 44 24 e0          	mov    -0x20(%rsp),%eax
  401247:	69 c0 16 2a 00 00    	imul   $0x2a16,%eax,%eax
  40124d:	89 44 24 e0          	mov    %eax,-0x20(%rsp)
  401251:	8b 44 24 e0          	mov    -0x20(%rsp),%eax
  401255:	69 c0 e0 80 00 00    	imul   $0x80e0,%eax,%eax
  40125b:	89 44 24 e0          	mov    %eax,-0x20(%rsp)
  40125f:	8b 44 24 d4          	mov    -0x2c(%rsp),%eax
  401263:	69 c0 56 64 00 00    	imul   $0x6456,%eax,%eax
  401269:	89 44 24 d4          	mov    %eax,-0x2c(%rsp)
  40126d:	8b 44 24 d0          	mov    -0x30(%rsp),%eax
  401271:	69 c0 89 77 00 00    	imul   $0x7789,%eax,%eax
  401277:	89 44 24 d0          	mov    %eax,-0x30(%rsp)
  40127b:	8b 44 24 f0          	mov    -0x10(%rsp),%eax
  40127f:	69 c0 0b 2f 00 00    	imul   $0x2f0b,%eax,%eax
  401285:	89 44 24 f0          	mov    %eax,-0x10(%rsp)
  401289:	8b 44 24 d4          	mov    -0x2c(%rsp),%eax
  40128d:	69 c0 10 f9 00 00    	imul   $0xf910,%eax,%eax
  401293:	89 44 24 d4          	mov    %eax,-0x2c(%rsp)
  401297:	8b 44 24 e4          	mov    -0x1c(%rsp),%eax
  40129b:	69 c0 58 cb 00 00    	imul   $0xcb58,%eax,%eax
  4012a1:	89 44 24 e4          	mov    %eax,-0x1c(%rsp)
  4012a5:	8b 44 24 dc          	mov    -0x24(%rsp),%eax
  4012a9:	69 c0 4f 02 00 00    	imul   $0x24f,%eax,%eax
  4012af:	89 44 24 dc          	mov    %eax,-0x24(%rsp)
  4012b3:	8b 44 24 f4          	mov    -0xc(%rsp),%eax
  4012b7:	69 c0 17 39 00 00    	imul   $0x3917,%eax,%eax
  4012bd:	89 44 24 f4          	mov    %eax,-0xc(%rsp)
  4012c1:	8b 44 24 d0          	mov    -0x30(%rsp),%eax
  4012c5:	69 c0 d0 da 00 00    	imul   $0xdad0,%eax,%eax
  4012cb:	89 44 24 d0          	mov    %eax,-0x30(%rsp)
  4012cf:	8b 44 24 dc          	mov    -0x24(%rsp),%eax
  4012d3:	69 c0 ef a9 00 00    	imul   $0xa9ef,%eax,%eax
  4012d9:	89 44 24 dc          	mov    %eax,-0x24(%rsp)
  4012dd:	8b 44 24 dc          	mov    -0x24(%rsp),%eax
  4012e1:	69 c0 78 ad 00 00    	imul   $0xad78,%eax,%eax
  4012e7:	89 44 24 dc          	mov    %eax,-0x24(%rsp)
  4012eb:	8b 44 24 d8          	mov    -0x28(%rsp),%eax
  4012ef:	69 c0 91 ed 00 00    	imul   $0xed91,%eax,%eax
  4012f5:	89 44 24 d8          	mov    %eax,-0x28(%rsp)
  4012f9:	8b 44 24 d0          	mov    -0x30(%rsp),%eax
  4012fd:	69 c0 13 12 00 00    	imul   $0x1213,%eax,%eax
  401303:	89 44 24 d0          	mov    %eax,-0x30(%rsp)
  401307:	8b 44 24 e0          	mov    -0x20(%rsp),%eax
  40130b:	69 c0 a8 d1 00 00    	imul   $0xd1a8,%eax,%eax
  401311:	89 44 24 e0          	mov    %eax,-0x20(%rsp)
  401315:	8b 44 24 d0          	mov    -0x30(%rsp),%eax
  401319:	69 c0 7e 97 00 00    	imul   $0x977e,%eax,%eax
  40131f:	89 44 24 d0          	mov    %eax,-0x30(%rsp)
  401323:	8b 44 24 f0          	mov    -0x10(%rsp),%eax
  401327:	69 c0 ec b6 00 00    	imul   $0xb6ec,%eax,%eax
  40132d:	89 44 24 f0          	mov    %eax,-0x10(%rsp)
  401331:	8b 44 24 e8          	mov    -0x18(%rsp),%eax
  401335:	69 c0 d2 15 00 00    	imul   $0x15d2,%eax,%eax
  40133b:	89 44 24 e8          	mov    %eax,-0x18(%rsp)
  40133f:	8b 44 24 d8          	mov    -0x28(%rsp),%eax
  401343:	69 c0 b9 de 00 00    	imul   $0xdeb9,%eax,%eax
  401349:	89 44 24 d8          	mov    %eax,-0x28(%rsp)
  40134d:	8b 44 24 d8          	mov    -0x28(%rsp),%eax
  401351:	69 c0 25 b2 00 00    	imul   $0xb225,%eax,%eax
  401357:	89 44 24 d8          	mov    %eax,-0x28(%rsp)
  40135b:	8b 44 24 e4          	mov    -0x1c(%rsp),%eax
  40135f:	69 c0 ec ee 00 00    	imul   $0xeeec,%eax,%eax
  401365:	89 44 24 e4          	mov    %eax,-0x1c(%rsp)
  401369:	8b 44 24 d8          	mov    -0x28(%rsp),%eax
  40136d:	69 c0 b0 d1 00 00    	imul   $0xd1b0,%eax,%eax
  401373:	89 44 24 d8          	mov    %eax,-0x28(%rsp)
  401377:	8b 44 24 dc          	mov    -0x24(%rsp),%eax
  40137b:	69 c0 f6 e1 00 00    	imul   $0xe1f6,%eax,%eax
  401381:	89 44 24 dc          	mov    %eax,-0x24(%rsp)
  401385:	8b 44 24 e4          	mov    -0x1c(%rsp),%eax
  401389:	69 c0 91 41 00 00    	imul   $0x4191,%eax,%eax
  40138f:	89 44 24 e4          	mov    %eax,-0x1c(%rsp)
  401393:	8b 44 24 ec          	mov    -0x14(%rsp),%eax
  401397:	69 c0 92 21 00 00    	imul   $0x2192,%eax,%eax
  40139d:	89 44 24 ec          	mov    %eax,-0x14(%rsp)
  4013a1:	8b 44 24 d8          	mov    -0x28(%rsp),%eax
  4013a5:	69 c0 7e 2d 00 00    	imul   $0x2d7e,%eax,%eax
  4013ab:	89 44 24 d8          	mov    %eax,-0x28(%rsp)
  4013af:	8b 44 24 e8          	mov    -0x18(%rsp),%eax
  4013b3:	69 c0 6a b3 00 00    	imul   $0xb36a,%eax,%eax
  4013b9:	89 44 24 e8          	mov    %eax,-0x18(%rsp)
  4013bd:	8b 44 24 e0          	mov    -0x20(%rsp),%eax
  4013c1:	69 c0 35 b3 00 00    	imul   $0xb335,%eax,%eax
  4013c7:	89 44 24 e0          	mov    %eax,-0x20(%rsp)
  4013cb:	8b 44 24 d8          	mov    -0x28(%rsp),%eax
  4013cf:	69 c0 e0 8f 00 00    	imul   $0x8fe0,%eax,%eax
  4013d5:	89 44 24 d8          	mov    %eax,-0x28(%rsp)
  4013d9:	8b 44 24 ec          	mov    -0x14(%rsp),%eax
  4013dd:	69 c0 5e 82 00 00    	imul   $0x825e,%eax,%eax
  4013e3:	89 44 24 ec          	mov    %eax,-0x14(%rsp)
  4013e7:	8b 44 24 e8          	mov    -0x18(%rsp),%eax
  4013eb:	69 c0 cf 48 00 00    	imul   $0x48cf,%eax,%eax
  4013f1:	89 44 24 e8          	mov    %eax,-0x18(%rsp)
  4013f5:	8b 44 24 f4          	mov    -0xc(%rsp),%eax
  4013f9:	69 c0 47 5d 00 00    	imul   $0x5d47,%eax,%eax
  4013ff:	89 44 24 f4          	mov    %eax,-0xc(%rsp)
  401403:	8b 44 24 f0          	mov    -0x10(%rsp),%eax
  401407:	69 c0 3b 32 00 00    	imul   $0x323b,%eax,%eax
  40140d:	89 44 24 f0          	mov    %eax,-0x10(%rsp)
  401411:	8b 44 24 e8          	mov    -0x18(%rsp),%eax
  401415:	69 c0 fe 1a 00 00    	imul   $0x1afe,%eax,%eax
  40141b:	89 44 24 e8          	mov    %eax,-0x18(%rsp)
  40141f:	8b 44 24 ec          	mov    -0x14(%rsp),%eax
  401423:	6b c0 76             	imul   $0x76,%eax,%eax
  401426:	89 44 24 ec          	mov    %eax,-0x14(%rsp)
  40142a:	8b 44 24 d0          	mov    -0x30(%rsp),%eax
  40142e:	69 c0 b9 1e 00 00    	imul   $0x1eb9,%eax,%eax
  401434:	89 44 24 d0          	mov    %eax,-0x30(%rsp)
  401438:	8b 44 24 ec          	mov    -0x14(%rsp),%eax
  40143c:	69 c0 58 78 00 00    	imul   $0x7858,%eax,%eax
  401442:	89 44 24 ec          	mov    %eax,-0x14(%rsp)
  401446:	8b 44 24 e8          	mov    -0x18(%rsp),%eax
  40144a:	69 c0 a7 a9 00 00    	imul   $0xa9a7,%eax,%eax
  401450:	89 44 24 e8          	mov    %eax,-0x18(%rsp)
  401454:	8b 44 24 e0          	mov    -0x20(%rsp),%eax
  401458:	69 c0 68 c4 00 00    	imul   $0xc468,%eax,%eax
  40145e:	89 44 24 e0          	mov    %eax,-0x20(%rsp)
  401462:	8b 44 24 e8          	mov    -0x18(%rsp),%eax
  401466:	69 c0 5b 75 00 00    	imul   $0x755b,%eax,%eax
  40146c:	89 44 24 e8          	mov    %eax,-0x18(%rsp)
  401470:	8b 44 24 f4          	mov    -0xc(%rsp),%eax
  401474:	69 c0 9a 07 00 00    	imul   $0x79a,%eax,%eax
  40147a:	89 44 24 f4          	mov    %eax,-0xc(%rsp)
  40147e:	8b 44 24 e8          	mov    -0x18(%rsp),%eax
  401482:	69 c0 7c b1 00 00    	imul   $0xb17c,%eax,%eax
  401488:	89 44 24 e8          	mov    %eax,-0x18(%rsp)
  40148c:	8b 44 24 f0          	mov    -0x10(%rsp),%eax
  401490:	69 c0 d0 7d 00 00    	imul   $0x7dd0,%eax,%eax
  401496:	89 44 24 f0          	mov    %eax,-0x10(%rsp)
  40149a:	8b 44 24 e8          	mov    -0x18(%rsp),%eax
  40149e:	69 c0 00 5c 00 00    	imul   $0x5c00,%eax,%eax
  4014a4:	89 44 24 e8          	mov    %eax,-0x18(%rsp)
  4014a8:	8b 44 24 f4          	mov    -0xc(%rsp),%eax
  4014ac:	69 c0 fa 29 00 00    	imul   $0x29fa,%eax,%eax
  4014b2:	89 44 24 f4          	mov    %eax,-0xc(%rsp)
  4014b6:	8b 44 24 d4          	mov    -0x2c(%rsp),%eax
  4014ba:	69 c0 39 6f 00 00    	imul   $0x6f39,%eax,%eax
  4014c0:	89 44 24 d4          	mov    %eax,-0x2c(%rsp)
  4014c4:	8b 44 24 e4          	mov    -0x1c(%rsp),%eax
  4014c8:	69 c0 3b f8 00 00    	imul   $0xf83b,%eax,%eax
  4014ce:	89 44 24 e4          	mov    %eax,-0x1c(%rsp)
  4014d2:	8b 44 24 d8          	mov    -0x28(%rsp),%eax
  4014d6:	69 c0 85 72 00 00    	imul   $0x7285,%eax,%eax
  4014dc:	89 44 24 d8          	mov    %eax,-0x28(%rsp)
  4014e0:	8b 44 24 d4          	mov    -0x2c(%rsp),%eax
  4014e4:	69 c0 9b 3f 00 00    	imul   $0x3f9b,%eax,%eax
  4014ea:	89 44 24 d4          	mov    %eax,-0x2c(%rsp)
  4014ee:	8b 44 24 dc          	mov    -0x24(%rsp),%eax
  4014f2:	69 c0 6b 3b 00 00    	imul   $0x3b6b,%eax,%eax
  4014f8:	89 44 24 dc          	mov    %eax,-0x24(%rsp)
  4014fc:	8b 44 24 d0          	mov    -0x30(%rsp),%eax
  401500:	69 c0 a6 5a 00 00    	imul   $0x5aa6,%eax,%eax
  401506:	89 44 24 d0          	mov    %eax,-0x30(%rsp)
  40150a:	8b 44 24 e0          	mov    -0x20(%rsp),%eax
  40150e:	69 c0 73 2f 00 00    	imul   $0x2f73,%eax,%eax
  401514:	89 44 24 e0          	mov    %eax,-0x20(%rsp)
  401518:	8b 44 24 d0          	mov    -0x30(%rsp),%eax
  40151c:	69 c0 8d 4a 00 00    	imul   $0x4a8d,%eax,%eax
  401522:	89 44 24 d0          	mov    %eax,-0x30(%rsp)
  401526:	8b 44 24 d4          	mov    -0x2c(%rsp),%eax
  40152a:	69 c0 4c 2d 00 00    	imul   $0x2d4c,%eax,%eax
  401530:	89 44 24 d4          	mov    %eax,-0x2c(%rsp)
  401534:	8b 44 24 dc          	mov    -0x24(%rsp),%eax
  401538:	69 c0 53 c4 00 00    	imul   $0xc453,%eax,%eax
  40153e:	89 44 24 dc          	mov    %eax,-0x24(%rsp)
  401542:	8b 44 24 d4          	mov    -0x2c(%rsp),%eax
  401546:	69 c0 ef f4 00 00    	imul   $0xf4ef,%eax,%eax
  40154c:	89 44 24 d4          	mov    %eax,-0x2c(%rsp)
  401550:	8b 44 24 f0          	mov    -0x10(%rsp),%eax
  401554:	69 c0 81 45 00 00    	imul   $0x4581,%eax,%eax
  40155a:	89 44 24 f0          	mov    %eax,-0x10(%rsp)
  40155e:	8b 44 24 d4          	mov    -0x2c(%rsp),%eax
  401562:	69 c0 f1 86 00 00    	imul   $0x86f1,%eax,%eax
  401568:	89 44 24 d4          	mov    %eax,-0x2c(%rsp)
  40156c:	8b 44 24 d8          	mov    -0x28(%rsp),%eax
  401570:	69 c0 1e 0b 00 00    	imul   $0xb1e,%eax,%eax
  401576:	89 44 24 d8          	mov    %eax,-0x28(%rsp)
  40157a:	8b 44 24 d0          	mov    -0x30(%rsp),%eax
  40157e:	69 c0 01 d1 00 00    	imul   $0xd101,%eax,%eax
  401584:	89 44 24 d0          	mov    %eax,-0x30(%rsp)
  401588:	8b 44 24 e4          	mov    -0x1c(%rsp),%eax
  40158c:	69 c0 51 c1 00 00    	imul   $0xc151,%eax,%eax
  401592:	89 44 24 e4          	mov    %eax,-0x1c(%rsp)
  401596:	8b 44 24 d8          	mov    -0x28(%rsp),%eax
  40159a:	69 c0 e2 a7 00 00    	imul   $0xa7e2,%eax,%eax
  4015a0:	89 44 24 d8          	mov    %eax,-0x28(%rsp)
  4015a4:	8b 44 24 ec          	mov    -0x14(%rsp),%eax
  4015a8:	69 c0 bc 0c 00 00    	imul   $0xcbc,%eax,%eax
  4015ae:	89 44 24 ec          	mov    %eax,-0x14(%rsp)
  4015b2:	8b 44 24 dc          	mov    -0x24(%rsp),%eax
  4015b6:	69 c0 03 e4 00 00    	imul   $0xe403,%eax,%eax
  4015bc:	89 44 24 dc          	mov    %eax,-0x24(%rsp)
  4015c0:	8b 44 24 e8          	mov    -0x18(%rsp),%eax
  4015c4:	69 c0 ea a7 00 00    	imul   $0xa7ea,%eax,%eax
  4015ca:	89 44 24 e8          	mov    %eax,-0x18(%rsp)
  4015ce:	8b 44 24 f0          	mov    -0x10(%rsp),%eax
  4015d2:	69 c0 68 8c 00 00    	imul   $0x8c68,%eax,%eax
  4015d8:	89 44 24 f0          	mov    %eax,-0x10(%rsp)
  4015dc:	8b 44 24 dc          	mov    -0x24(%rsp),%eax
  4015e0:	69 c0 92 79 00 00    	imul   $0x7992,%eax,%eax
  4015e6:	89 44 24 dc          	mov    %eax,-0x24(%rsp)
  4015ea:	8b 44 24 ec          	mov    -0x14(%rsp),%eax
  4015ee:	69 c0 8e d5 00 00    	imul   $0xd58e,%eax,%eax
  4015f4:	89 44 24 ec          	mov    %eax,-0x14(%rsp)
  4015f8:	8b 44 24 e0          	mov    -0x20(%rsp),%eax
  4015fc:	69 c0 f6 94 00 00    	imul   $0x94f6,%eax,%eax
  401602:	89 44 24 e0          	mov    %eax,-0x20(%rsp)
  401606:	8b 44 24 dc          	mov    -0x24(%rsp),%eax
  40160a:	69 c0 14 d3 00 00    	imul   $0xd314,%eax,%eax
  401610:	89 44 24 dc          	mov    %eax,-0x24(%rsp)
  401614:	8b 44 24 ec          	mov    -0x14(%rsp),%eax
  401618:	69 c0 81 a5 00 00    	imul   $0xa581,%eax,%eax
  40161e:	89 44 24 ec          	mov    %eax,-0x14(%rsp)
  401622:	8b 44 24 d8          	mov    -0x28(%rsp),%eax
  401626:	69 c0 36 25 00 00    	imul   $0x2536,%eax,%eax
  40162c:	89 44 24 d8          	mov    %eax,-0x28(%rsp)
  401630:	8b 44 24 dc          	mov    -0x24(%rsp),%eax
  401634:	69 c0 6f 6e 00 00    	imul   $0x6e6f,%eax,%eax
  40163a:	89 44 24 dc          	mov    %eax,-0x24(%rsp)
  40163e:	8b 44 24 dc          	mov    -0x24(%rsp),%eax
  401642:	69 c0 53 ae 00 00    	imul   $0xae53,%eax,%eax
  401648:	89 44 24 dc          	mov    %eax,-0x24(%rsp)
  40164c:	8b 44 24 e4          	mov    -0x1c(%rsp),%eax
  401650:	69 c0 19 8f 00 00    	imul   $0x8f19,%eax,%eax
  401656:	89 44 24 e4          	mov    %eax,-0x1c(%rsp)
  40165a:	8b 44 24 d8          	mov    -0x28(%rsp),%eax
  40165e:	69 c0 a6 ae 00 00    	imul   $0xaea6,%eax,%eax
  401664:	89 44 24 d8          	mov    %eax,-0x28(%rsp)
  401668:	8b 44 24 d0          	mov    -0x30(%rsp),%eax
  40166c:	69 c0 90 bf 00 00    	imul   $0xbf90,%eax,%eax
  401672:	89 44 24 d0          	mov    %eax,-0x30(%rsp)
  401676:	8b 44 24 d8          	mov    -0x28(%rsp),%eax
  40167a:	69 c0 f7 09 00 00    	imul   $0x9f7,%eax,%eax
  401680:	89 44 24 d8          	mov    %eax,-0x28(%rsp)
  401684:	8b 44 24 d8          	mov    -0x28(%rsp),%eax
  401688:	69 c0 ef 70 00 00    	imul   $0x70ef,%eax,%eax
  40168e:	89 44 24 d8          	mov    %eax,-0x28(%rsp)
  401692:	ba 00 00 00 00       	mov    $0x0,%edx
  401697:	b8 00 00 00 00       	mov    $0x0,%eax
  40169c:	83 fa 09             	cmp    $0x9,%edx
  40169f:	77 0d                	ja     4016ae <scramble+0x496>
  4016a1:	89 d1                	mov    %edx,%ecx
  4016a3:	8b 4c 8c d0          	mov    -0x30(%rsp,%rcx,4),%ecx
  4016a7:	01 c8                	add    %ecx,%eax
  4016a9:	83 c2 01             	add    $0x1,%edx
  4016ac:	eb ee                	jmp    40169c <scramble+0x484>
  4016ae:	c3                   	retq   

00000000004016af <getbuf>:
  4016af:	48 83 ec 38          	sub    $0x38,%rsp
  4016b3:	48 89 e7             	mov    %rsp,%rdi
  4016b6:	e8 2c 02 00 00       	callq  4018e7 <Gets>
  4016bb:	b8 01 00 00 00       	mov    $0x1,%eax
  4016c0:	48 83 c4 38          	add    $0x38,%rsp
  4016c4:	c3                   	retq   

00000000004016c5 <touch1>:
  4016c5:	48 83 ec 08          	sub    $0x8,%rsp
  4016c9:	c7 05 29 2e 20 00 01 	movl   $0x1,0x202e29(%rip)        # 6044fc <vlevel>
  4016d0:	00 00 00 
  4016d3:	bf 58 2e 40 00       	mov    $0x402e58,%edi
  4016d8:	e8 33 f5 ff ff       	callq  400c10 <puts@plt>
  4016dd:	bf 01 00 00 00       	mov    $0x1,%edi
  4016e2:	e8 f3 03 00 00       	callq  401ada <validate>
  4016e7:	bf 00 00 00 00       	mov    $0x0,%edi
  4016ec:	e8 af f6 ff ff       	callq  400da0 <exit@plt>

00000000004016f1 <touch2>:
  4016f1:	48 83 ec 08          	sub    $0x8,%rsp
  4016f5:	89 fe                	mov    %edi,%esi
  4016f7:	c7 05 fb 2d 20 00 02 	movl   $0x2,0x202dfb(%rip)        # 6044fc <vlevel>
  4016fe:	00 00 00 
  401701:	39 3d fd 2d 20 00    	cmp    %edi,0x202dfd(%rip)        # 604504 <cookie>
  401707:	74 23                	je     40172c <touch2+0x3b>
  401709:	bf a8 2e 40 00       	mov    $0x402ea8,%edi
  40170e:	b8 00 00 00 00       	mov    $0x0,%eax
  401713:	e8 28 f5 ff ff       	callq  400c40 <printf@plt>
  401718:	bf 02 00 00 00       	mov    $0x2,%edi
  40171d:	e8 6a 04 00 00       	callq  401b8c <fail>
  401722:	bf 00 00 00 00       	mov    $0x0,%edi
  401727:	e8 74 f6 ff ff       	callq  400da0 <exit@plt>
  40172c:	bf 80 2e 40 00       	mov    $0x402e80,%edi
  401731:	b8 00 00 00 00       	mov    $0x0,%eax
  401736:	e8 05 f5 ff ff       	callq  400c40 <printf@plt>
  40173b:	bf 02 00 00 00       	mov    $0x2,%edi
  401740:	e8 95 03 00 00       	callq  401ada <validate>
  401745:	eb db                	jmp    401722 <touch2+0x31>

0000000000401747 <hexmatch>:
  401747:	41 54                	push   %r12
  401749:	55                   	push   %rbp
  40174a:	53                   	push   %rbx
  40174b:	48 83 ec 70          	sub    $0x70,%rsp
  40174f:	89 fd                	mov    %edi,%ebp
  401751:	48 89 f3             	mov    %rsi,%rbx
  401754:	e8 a7 f5 ff ff       	callq  400d00 <random@plt>
  401759:	48 89 c1             	mov    %rax,%rcx
  40175c:	48 ba 0b d7 a3 70 3d 	mov    $0xa3d70a3d70a3d70b,%rdx
  401763:	0a d7 a3 
  401766:	48 f7 ea             	imul   %rdx
  401769:	48 01 ca             	add    %rcx,%rdx
  40176c:	48 c1 fa 06          	sar    $0x6,%rdx
  401770:	48 89 c8             	mov    %rcx,%rax
  401773:	48 c1 f8 3f          	sar    $0x3f,%rax
  401777:	48 29 c2             	sub    %rax,%rdx
  40177a:	48 8d 04 92          	lea    (%rdx,%rdx,4),%rax
  40177e:	48 8d 14 80          	lea    (%rax,%rax,4),%rdx
  401782:	48 8d 04 95 00 00 00 	lea    0x0(,%rdx,4),%rax
  401789:	00 
  40178a:	48 29 c1             	sub    %rax,%rcx
  40178d:	4c 8d 24 0c          	lea    (%rsp,%rcx,1),%r12
  401791:	89 ea                	mov    %ebp,%edx
  401793:	be 75 2e 40 00       	mov    $0x402e75,%esi
  401798:	4c 89 e7             	mov    %r12,%rdi
  40179b:	b8 00 00 00 00       	mov    $0x0,%eax
  4017a0:	e8 eb f5 ff ff       	callq  400d90 <sprintf@plt>
  4017a5:	ba 09 00 00 00       	mov    $0x9,%edx
  4017aa:	4c 89 e6             	mov    %r12,%rsi
  4017ad:	48 89 df             	mov    %rbx,%rdi
  4017b0:	e8 3b f4 ff ff       	callq  400bf0 <strncmp@plt>
  4017b5:	85 c0                	test   %eax,%eax
  4017b7:	0f 94 c0             	sete   %al
  4017ba:	0f b6 c0             	movzbl %al,%eax
  4017bd:	48 83 c4 70          	add    $0x70,%rsp
  4017c1:	5b                   	pop    %rbx
  4017c2:	5d                   	pop    %rbp
  4017c3:	41 5c                	pop    %r12
  4017c5:	c3                   	retq   

00000000004017c6 <touch3>:
  4017c6:	53                   	push   %rbx
  4017c7:	48 89 fb             	mov    %rdi,%rbx
  4017ca:	c7 05 28 2d 20 00 03 	movl   $0x3,0x202d28(%rip)        # 6044fc <vlevel>
  4017d1:	00 00 00 
  4017d4:	48 89 fe             	mov    %rdi,%rsi
  4017d7:	8b 3d 27 2d 20 00    	mov    0x202d27(%rip),%edi        # 604504 <cookie>
  4017dd:	e8 65 ff ff ff       	callq  401747 <hexmatch>
  4017e2:	85 c0                	test   %eax,%eax
  4017e4:	74 26                	je     40180c <touch3+0x46>
  4017e6:	48 89 de             	mov    %rbx,%rsi
  4017e9:	bf d0 2e 40 00       	mov    $0x402ed0,%edi
  4017ee:	b8 00 00 00 00       	mov    $0x0,%eax
  4017f3:	e8 48 f4 ff ff       	callq  400c40 <printf@plt>
  4017f8:	bf 03 00 00 00       	mov    $0x3,%edi
  4017fd:	e8 d8 02 00 00       	callq  401ada <validate>
  401802:	bf 00 00 00 00       	mov    $0x0,%edi
  401807:	e8 94 f5 ff ff       	callq  400da0 <exit@plt>
  40180c:	48 89 de             	mov    %rbx,%rsi
  40180f:	bf f8 2e 40 00       	mov    $0x402ef8,%edi
  401814:	b8 00 00 00 00       	mov    $0x0,%eax
  401819:	e8 22 f4 ff ff       	callq  400c40 <printf@plt>
  40181e:	bf 03 00 00 00       	mov    $0x3,%edi
  401823:	e8 64 03 00 00       	callq  401b8c <fail>
  401828:	eb d8                	jmp    401802 <touch3+0x3c>

000000000040182a <test>:
  40182a:	48 83 ec 08          	sub    $0x8,%rsp
  40182e:	b8 00 00 00 00       	mov    $0x0,%eax
  401833:	e8 77 fe ff ff       	callq  4016af <getbuf>
  401838:	89 c6                	mov    %eax,%esi
  40183a:	bf 20 2f 40 00       	mov    $0x402f20,%edi
  40183f:	b8 00 00 00 00       	mov    $0x0,%eax
  401844:	e8 f7 f3 ff ff       	callq  400c40 <printf@plt>
  401849:	48 83 c4 08          	add    $0x8,%rsp
  40184d:	c3                   	retq   

000000000040184e <save_char>:
  40184e:	8b 05 d0 38 20 00    	mov    0x2038d0(%rip),%eax        # 605124 <gets_cnt>
  401854:	3d ff 03 00 00       	cmp    $0x3ff,%eax
  401859:	7f 49                	jg     4018a4 <save_char+0x56>
  40185b:	89 f9                	mov    %edi,%ecx
  40185d:	c0 e9 04             	shr    $0x4,%cl
  401860:	8d 14 40             	lea    (%rax,%rax,2),%edx
  401863:	83 e1 0f             	and    $0xf,%ecx
  401866:	0f b6 b1 40 32 40 00 	movzbl 0x403240(%rcx),%esi
  40186d:	48 63 ca             	movslq %edx,%rcx
  401870:	40 88 b1 20 45 60 00 	mov    %sil,0x604520(%rcx)
  401877:	8d 4a 01             	lea    0x1(%rdx),%ecx
  40187a:	83 e7 0f             	and    $0xf,%edi
  40187d:	0f b6 b7 40 32 40 00 	movzbl 0x403240(%rdi),%esi
  401884:	48 63 c9             	movslq %ecx,%rcx
  401887:	40 88 b1 20 45 60 00 	mov    %sil,0x604520(%rcx)
  40188e:	83 c2 02             	add    $0x2,%edx
  401891:	48 63 d2             	movslq %edx,%rdx
  401894:	c6 82 20 45 60 00 20 	movb   $0x20,0x604520(%rdx)
  40189b:	83 c0 01             	add    $0x1,%eax
  40189e:	89 05 80 38 20 00    	mov    %eax,0x203880(%rip)        # 605124 <gets_cnt>
  4018a4:	c3                   	retq   

00000000004018a5 <save_term>:
  4018a5:	8b 05 79 38 20 00    	mov    0x203879(%rip),%eax        # 605124 <gets_cnt>
  4018ab:	8d 04 40             	lea    (%rax,%rax,2),%eax
  4018ae:	48 98                	cltq   
  4018b0:	c6 80 20 45 60 00 00 	movb   $0x0,0x604520(%rax)
  4018b7:	c3                   	retq   

00000000004018b8 <check_fail>:
  4018b8:	48 83 ec 08          	sub    $0x8,%rsp
  4018bc:	0f be 35 65 38 20 00 	movsbl 0x203865(%rip),%esi        # 605128 <target_prefix>
  4018c3:	b9 20 45 60 00       	mov    $0x604520,%ecx
  4018c8:	8b 15 2a 2c 20 00    	mov    0x202c2a(%rip),%edx        # 6044f8 <check_level>
  4018ce:	bf 43 2f 40 00       	mov    $0x402f43,%edi
  4018d3:	b8 00 00 00 00       	mov    $0x0,%eax
  4018d8:	e8 63 f3 ff ff       	callq  400c40 <printf@plt>
  4018dd:	bf 01 00 00 00       	mov    $0x1,%edi
  4018e2:	e8 b9 f4 ff ff       	callq  400da0 <exit@plt>

00000000004018e7 <Gets>:
  4018e7:	41 54                	push   %r12
  4018e9:	55                   	push   %rbp
  4018ea:	53                   	push   %rbx
  4018eb:	49 89 fc             	mov    %rdi,%r12
  4018ee:	c7 05 2c 38 20 00 00 	movl   $0x0,0x20382c(%rip)        # 605124 <gets_cnt>
  4018f5:	00 00 00 
  4018f8:	48 89 fb             	mov    %rdi,%rbx
  4018fb:	48 8b 3d ee 2b 20 00 	mov    0x202bee(%rip),%rdi        # 6044f0 <infile>
  401902:	e8 09 f4 ff ff       	callq  400d10 <_IO_getc@plt>
  401907:	83 f8 ff             	cmp    $0xffffffffffffffff,%eax
  40190a:	74 18                	je     401924 <Gets+0x3d>
  40190c:	83 f8 0a             	cmp    $0xa,%eax
  40190f:	74 13                	je     401924 <Gets+0x3d>
  401911:	48 8d 6b 01          	lea    0x1(%rbx),%rbp
  401915:	88 03                	mov    %al,(%rbx)
  401917:	0f b6 f8             	movzbl %al,%edi
  40191a:	e8 2f ff ff ff       	callq  40184e <save_char>
  40191f:	48 89 eb             	mov    %rbp,%rbx
  401922:	eb d7                	jmp    4018fb <Gets+0x14>
  401924:	c6 03 00             	movb   $0x0,(%rbx)
  401927:	b8 00 00 00 00       	mov    $0x0,%eax
  40192c:	e8 74 ff ff ff       	callq  4018a5 <save_term>
  401931:	4c 89 e0             	mov    %r12,%rax
  401934:	5b                   	pop    %rbx
  401935:	5d                   	pop    %rbp
  401936:	41 5c                	pop    %r12
  401938:	c3                   	retq   

0000000000401939 <notify_server>:
  401939:	83 3d c8 2b 20 00 00 	cmpl   $0x0,0x202bc8(%rip)        # 604508 <is_checker>
  401940:	0f 85 93 01 00 00    	jne    401ad9 <notify_server+0x1a0>
  401946:	55                   	push   %rbp
  401947:	53                   	push   %rbx
  401948:	48 81 ec 08 40 00 00 	sub    $0x4008,%rsp
  40194f:	89 fb                	mov    %edi,%ebx
  401951:	81 3d c9 37 20 00 9c 	cmpl   $0x1f9c,0x2037c9(%rip)        # 605124 <gets_cnt>
  401958:	1f 00 00 
  40195b:	0f 8f ad 00 00 00    	jg     401a0e <notify_server+0xd5>
  401961:	44 0f be 0d bf 37 20 	movsbl 0x2037bf(%rip),%r9d        # 605128 <target_prefix>
  401968:	00 
  401969:	83 3d 18 2b 20 00 00 	cmpl   $0x0,0x202b18(%rip)        # 604488 <notify>
  401970:	0f 84 b1 00 00 00    	je     401a27 <notify_server+0xee>
  401976:	44 8b 05 83 2b 20 00 	mov    0x202b83(%rip),%r8d        # 604500 <authkey>
  40197d:	85 db                	test   %ebx,%ebx
  40197f:	0f 84 ad 00 00 00    	je     401a32 <notify_server+0xf9>
  401985:	bd 5e 2f 40 00       	mov    $0x402f5e,%ebp
  40198a:	68 20 45 60 00       	pushq  $0x604520
  40198f:	56                   	push   %rsi
  401990:	48 89 e9             	mov    %rbp,%rcx
  401993:	8b 15 af 27 20 00    	mov    0x2027af(%rip),%edx        # 604148 <target_id>
  401999:	be 63 2f 40 00       	mov    $0x402f63,%esi
  40199e:	48 8d bc 24 10 20 00 	lea    0x2010(%rsp),%rdi
  4019a5:	00 
  4019a6:	b8 00 00 00 00       	mov    $0x0,%eax
  4019ab:	e8 e0 f3 ff ff       	callq  400d90 <sprintf@plt>
  4019b0:	48 83 c4 10          	add    $0x10,%rsp
  4019b4:	83 3d cd 2a 20 00 00 	cmpl   $0x0,0x202acd(%rip)        # 604488 <notify>
  4019bb:	0f 84 ab 00 00 00    	je     401a6c <notify_server+0x133>
  4019c1:	85 db                	test   %ebx,%ebx
  4019c3:	0f 84 8f 00 00 00    	je     401a58 <notify_server+0x11f>
  4019c9:	49 89 e1             	mov    %rsp,%r9
  4019cc:	41 b8 00 00 00 00    	mov    $0x0,%r8d
  4019d2:	48 8d 8c 24 00 20 00 	lea    0x2000(%rsp),%rcx
  4019d9:	00 
  4019da:	48 8b 15 6f 27 20 00 	mov    0x20276f(%rip),%rdx        # 604150 <lab>
  4019e1:	48 8b 35 70 27 20 00 	mov    0x202770(%rip),%rsi        # 604158 <course>
  4019e8:	48 8b 3d 51 27 20 00 	mov    0x202751(%rip),%rdi        # 604140 <user_id>
  4019ef:	e8 09 10 00 00       	callq  4029fd <driver_post>
  4019f4:	85 c0                	test   %eax,%eax
  4019f6:	78 44                	js     401a3c <notify_server+0x103>
  4019f8:	bf a8 30 40 00       	mov    $0x4030a8,%edi
  4019fd:	e8 0e f2 ff ff       	callq  400c10 <puts@plt>
  401a02:	bf 8b 2f 40 00       	mov    $0x402f8b,%edi
  401a07:	e8 04 f2 ff ff       	callq  400c10 <puts@plt>
  401a0c:	eb 54                	jmp    401a62 <notify_server+0x129>
  401a0e:	bf 78 30 40 00       	mov    $0x403078,%edi
  401a13:	b8 00 00 00 00       	mov    $0x0,%eax
  401a18:	e8 23 f2 ff ff       	callq  400c40 <printf@plt>
  401a1d:	bf 01 00 00 00       	mov    $0x1,%edi
  401a22:	e8 79 f3 ff ff       	callq  400da0 <exit@plt>
  401a27:	41 b8 ff ff ff ff    	mov    $0xffffffff,%r8d
  401a2d:	e9 4b ff ff ff       	jmpq   40197d <notify_server+0x44>
  401a32:	bd 59 2f 40 00       	mov    $0x402f59,%ebp
  401a37:	e9 4e ff ff ff       	jmpq   40198a <notify_server+0x51>
  401a3c:	48 89 e6             	mov    %rsp,%rsi
  401a3f:	bf 7f 2f 40 00       	mov    $0x402f7f,%edi
  401a44:	b8 00 00 00 00       	mov    $0x0,%eax
  401a49:	e8 f2 f1 ff ff       	callq  400c40 <printf@plt>
  401a4e:	bf 01 00 00 00       	mov    $0x1,%edi
  401a53:	e8 48 f3 ff ff       	callq  400da0 <exit@plt>
  401a58:	bf 95 2f 40 00       	mov    $0x402f95,%edi
  401a5d:	e8 ae f1 ff ff       	callq  400c10 <puts@plt>
  401a62:	48 81 c4 08 40 00 00 	add    $0x4008,%rsp
  401a69:	5b                   	pop    %rbx
  401a6a:	5d                   	pop    %rbp
  401a6b:	c3                   	retq   
  401a6c:	48 89 ee             	mov    %rbp,%rsi
  401a6f:	bf e0 30 40 00       	mov    $0x4030e0,%edi
  401a74:	b8 00 00 00 00       	mov    $0x0,%eax
  401a79:	e8 c2 f1 ff ff       	callq  400c40 <printf@plt>
  401a7e:	48 8b 35 bb 26 20 00 	mov    0x2026bb(%rip),%rsi        # 604140 <user_id>
  401a85:	bf 9c 2f 40 00       	mov    $0x402f9c,%edi
  401a8a:	b8 00 00 00 00       	mov    $0x0,%eax
  401a8f:	e8 ac f1 ff ff       	callq  400c40 <printf@plt>
  401a94:	48 8b 35 bd 26 20 00 	mov    0x2026bd(%rip),%rsi        # 604158 <course>
  401a9b:	bf a9 2f 40 00       	mov    $0x402fa9,%edi
  401aa0:	b8 00 00 00 00       	mov    $0x0,%eax
  401aa5:	e8 96 f1 ff ff       	callq  400c40 <printf@plt>
  401aaa:	48 8b 35 9f 26 20 00 	mov    0x20269f(%rip),%rsi        # 604150 <lab>
  401ab1:	bf b5 2f 40 00       	mov    $0x402fb5,%edi
  401ab6:	b8 00 00 00 00       	mov    $0x0,%eax
  401abb:	e8 80 f1 ff ff       	callq  400c40 <printf@plt>
  401ac0:	48 8d b4 24 00 20 00 	lea    0x2000(%rsp),%rsi
  401ac7:	00 
  401ac8:	bf be 2f 40 00       	mov    $0x402fbe,%edi
  401acd:	b8 00 00 00 00       	mov    $0x0,%eax
  401ad2:	e8 69 f1 ff ff       	callq  400c40 <printf@plt>
  401ad7:	eb 89                	jmp    401a62 <notify_server+0x129>
  401ad9:	c3                   	retq   

0000000000401ada <validate>:
  401ada:	53                   	push   %rbx
  401adb:	89 fb                	mov    %edi,%ebx
  401add:	83 3d 24 2a 20 00 00 	cmpl   $0x0,0x202a24(%rip)        # 604508 <is_checker>
  401ae4:	74 60                	je     401b46 <validate+0x6c>
  401ae6:	39 3d 10 2a 20 00    	cmp    %edi,0x202a10(%rip)        # 6044fc <vlevel>
  401aec:	75 29                	jne    401b17 <validate+0x3d>
  401aee:	8b 35 04 2a 20 00    	mov    0x202a04(%rip),%esi        # 6044f8 <check_level>
  401af4:	39 fe                	cmp    %edi,%esi
  401af6:	75 33                	jne    401b2b <validate+0x51>
  401af8:	0f be 35 29 36 20 00 	movsbl 0x203629(%rip),%esi        # 605128 <target_prefix>
  401aff:	b9 20 45 60 00       	mov    $0x604520,%ecx
  401b04:	89 fa                	mov    %edi,%edx
  401b06:	bf e8 2f 40 00       	mov    $0x402fe8,%edi
  401b0b:	b8 00 00 00 00       	mov    $0x0,%eax
  401b10:	e8 2b f1 ff ff       	callq  400c40 <printf@plt>
  401b15:	5b                   	pop    %rbx
  401b16:	c3                   	retq   
  401b17:	bf ca 2f 40 00       	mov    $0x402fca,%edi
  401b1c:	e8 ef f0 ff ff       	callq  400c10 <puts@plt>
  401b21:	b8 00 00 00 00       	mov    $0x0,%eax
  401b26:	e8 8d fd ff ff       	callq  4018b8 <check_fail>
  401b2b:	89 fa                	mov    %edi,%edx
  401b2d:	bf 08 31 40 00       	mov    $0x403108,%edi
  401b32:	b8 00 00 00 00       	mov    $0x0,%eax
  401b37:	e8 04 f1 ff ff       	callq  400c40 <printf@plt>
  401b3c:	b8 00 00 00 00       	mov    $0x0,%eax
  401b41:	e8 72 fd ff ff       	callq  4018b8 <check_fail>
  401b46:	39 3d b0 29 20 00    	cmp    %edi,0x2029b0(%rip)        # 6044fc <vlevel>
  401b4c:	74 18                	je     401b66 <validate+0x8c>
  401b4e:	bf ca 2f 40 00       	mov    $0x402fca,%edi
  401b53:	e8 b8 f0 ff ff       	callq  400c10 <puts@plt>
  401b58:	89 de                	mov    %ebx,%esi
  401b5a:	bf 00 00 00 00       	mov    $0x0,%edi
  401b5f:	e8 d5 fd ff ff       	callq  401939 <notify_server>
  401b64:	eb af                	jmp    401b15 <validate+0x3b>
  401b66:	0f be 15 bb 35 20 00 	movsbl 0x2035bb(%rip),%edx        # 605128 <target_prefix>
  401b6d:	89 fe                	mov    %edi,%esi
  401b6f:	bf 30 31 40 00       	mov    $0x403130,%edi
  401b74:	b8 00 00 00 00       	mov    $0x0,%eax
  401b79:	e8 c2 f0 ff ff       	callq  400c40 <printf@plt>
  401b7e:	89 de                	mov    %ebx,%esi
  401b80:	bf 01 00 00 00       	mov    $0x1,%edi
  401b85:	e8 af fd ff ff       	callq  401939 <notify_server>
  401b8a:	eb 89                	jmp    401b15 <validate+0x3b>

0000000000401b8c <fail>:
  401b8c:	48 83 ec 08          	sub    $0x8,%rsp
  401b90:	83 3d 71 29 20 00 00 	cmpl   $0x0,0x202971(%rip)        # 604508 <is_checker>
  401b97:	75 11                	jne    401baa <fail+0x1e>
  401b99:	89 fe                	mov    %edi,%esi
  401b9b:	bf 00 00 00 00       	mov    $0x0,%edi
  401ba0:	e8 94 fd ff ff       	callq  401939 <notify_server>
  401ba5:	48 83 c4 08          	add    $0x8,%rsp
  401ba9:	c3                   	retq   
  401baa:	b8 00 00 00 00       	mov    $0x0,%eax
  401baf:	e8 04 fd ff ff       	callq  4018b8 <check_fail>

0000000000401bb4 <bushandler>:
  401bb4:	48 83 ec 08          	sub    $0x8,%rsp
  401bb8:	83 3d 49 29 20 00 00 	cmpl   $0x0,0x202949(%rip)        # 604508 <is_checker>
  401bbf:	74 14                	je     401bd5 <bushandler+0x21>
  401bc1:	bf fd 2f 40 00       	mov    $0x402ffd,%edi
  401bc6:	e8 45 f0 ff ff       	callq  400c10 <puts@plt>
  401bcb:	b8 00 00 00 00       	mov    $0x0,%eax
  401bd0:	e8 e3 fc ff ff       	callq  4018b8 <check_fail>
  401bd5:	bf 68 31 40 00       	mov    $0x403168,%edi
  401bda:	e8 31 f0 ff ff       	callq  400c10 <puts@plt>
  401bdf:	bf 07 30 40 00       	mov    $0x403007,%edi
  401be4:	e8 27 f0 ff ff       	callq  400c10 <puts@plt>
  401be9:	be 00 00 00 00       	mov    $0x0,%esi
  401bee:	bf 00 00 00 00       	mov    $0x0,%edi
  401bf3:	e8 41 fd ff ff       	callq  401939 <notify_server>
  401bf8:	bf 01 00 00 00       	mov    $0x1,%edi
  401bfd:	e8 9e f1 ff ff       	callq  400da0 <exit@plt>

0000000000401c02 <seghandler>:
  401c02:	48 83 ec 08          	sub    $0x8,%rsp
  401c06:	83 3d fb 28 20 00 00 	cmpl   $0x0,0x2028fb(%rip)        # 604508 <is_checker>
  401c0d:	74 14                	je     401c23 <seghandler+0x21>
  401c0f:	bf 1d 30 40 00       	mov    $0x40301d,%edi
  401c14:	e8 f7 ef ff ff       	callq  400c10 <puts@plt>
  401c19:	b8 00 00 00 00       	mov    $0x0,%eax
  401c1e:	e8 95 fc ff ff       	callq  4018b8 <check_fail>
  401c23:	bf 88 31 40 00       	mov    $0x403188,%edi
  401c28:	e8 e3 ef ff ff       	callq  400c10 <puts@plt>
  401c2d:	bf 07 30 40 00       	mov    $0x403007,%edi
  401c32:	e8 d9 ef ff ff       	callq  400c10 <puts@plt>
  401c37:	be 00 00 00 00       	mov    $0x0,%esi
  401c3c:	bf 00 00 00 00       	mov    $0x0,%edi
  401c41:	e8 f3 fc ff ff       	callq  401939 <notify_server>
  401c46:	bf 01 00 00 00       	mov    $0x1,%edi
  401c4b:	e8 50 f1 ff ff       	callq  400da0 <exit@plt>

0000000000401c50 <illegalhandler>:
  401c50:	48 83 ec 08          	sub    $0x8,%rsp
  401c54:	83 3d ad 28 20 00 00 	cmpl   $0x0,0x2028ad(%rip)        # 604508 <is_checker>
  401c5b:	74 14                	je     401c71 <illegalhandler+0x21>
  401c5d:	bf 30 30 40 00       	mov    $0x403030,%edi
  401c62:	e8 a9 ef ff ff       	callq  400c10 <puts@plt>
  401c67:	b8 00 00 00 00       	mov    $0x0,%eax
  401c6c:	e8 47 fc ff ff       	callq  4018b8 <check_fail>
  401c71:	bf b0 31 40 00       	mov    $0x4031b0,%edi
  401c76:	e8 95 ef ff ff       	callq  400c10 <puts@plt>
  401c7b:	bf 07 30 40 00       	mov    $0x403007,%edi
  401c80:	e8 8b ef ff ff       	callq  400c10 <puts@plt>
  401c85:	be 00 00 00 00       	mov    $0x0,%esi
  401c8a:	bf 00 00 00 00       	mov    $0x0,%edi
  401c8f:	e8 a5 fc ff ff       	callq  401939 <notify_server>
  401c94:	bf 01 00 00 00       	mov    $0x1,%edi
  401c99:	e8 02 f1 ff ff       	callq  400da0 <exit@plt>

0000000000401c9e <sigalrmhandler>:
  401c9e:	48 83 ec 08          	sub    $0x8,%rsp
  401ca2:	83 3d 5f 28 20 00 00 	cmpl   $0x0,0x20285f(%rip)        # 604508 <is_checker>
  401ca9:	74 14                	je     401cbf <sigalrmhandler+0x21>
  401cab:	bf 44 30 40 00       	mov    $0x403044,%edi
  401cb0:	e8 5b ef ff ff       	callq  400c10 <puts@plt>
  401cb5:	b8 00 00 00 00       	mov    $0x0,%eax
  401cba:	e8 f9 fb ff ff       	callq  4018b8 <check_fail>
  401cbf:	be 05 00 00 00       	mov    $0x5,%esi
  401cc4:	bf e0 31 40 00       	mov    $0x4031e0,%edi
  401cc9:	b8 00 00 00 00       	mov    $0x0,%eax
  401cce:	e8 6d ef ff ff       	callq  400c40 <printf@plt>
  401cd3:	be 00 00 00 00       	mov    $0x0,%esi
  401cd8:	bf 00 00 00 00       	mov    $0x0,%edi
  401cdd:	e8 57 fc ff ff       	callq  401939 <notify_server>
  401ce2:	bf 01 00 00 00       	mov    $0x1,%edi
  401ce7:	e8 b4 f0 ff ff       	callq  400da0 <exit@plt>

0000000000401cec <launch>:
  401cec:	55                   	push   %rbp
  401ced:	48 89 e5             	mov    %rsp,%rbp
  401cf0:	48 89 fa             	mov    %rdi,%rdx
  401cf3:	48 8d 47 17          	lea    0x17(%rdi),%rax
  401cf7:	48 83 e0 f0          	and    $0xfffffffffffffff0,%rax
  401cfb:	48 29 c4             	sub    %rax,%rsp
  401cfe:	48 8d 7c 24 0f       	lea    0xf(%rsp),%rdi
  401d03:	48 83 e7 f0          	and    $0xfffffffffffffff0,%rdi
  401d07:	be f4 00 00 00       	mov    $0xf4,%esi
  401d0c:	e8 3f ef ff ff       	callq  400c50 <memset@plt>
  401d11:	48 8b 05 88 27 20 00 	mov    0x202788(%rip),%rax        # 6044a0 <stdin@@GLIBC_2.2.5>
  401d18:	48 39 05 d1 27 20 00 	cmp    %rax,0x2027d1(%rip)        # 6044f0 <infile>
  401d1f:	74 29                	je     401d4a <launch+0x5e>
  401d21:	c7 05 d1 27 20 00 00 	movl   $0x0,0x2027d1(%rip)        # 6044fc <vlevel>
  401d28:	00 00 00 
  401d2b:	b8 00 00 00 00       	mov    $0x0,%eax
  401d30:	e8 f5 fa ff ff       	callq  40182a <test>
  401d35:	83 3d cc 27 20 00 00 	cmpl   $0x0,0x2027cc(%rip)        # 604508 <is_checker>
  401d3c:	75 1d                	jne    401d5b <launch+0x6f>
  401d3e:	bf 64 30 40 00       	mov    $0x403064,%edi
  401d43:	e8 c8 ee ff ff       	callq  400c10 <puts@plt>
  401d48:	c9                   	leaveq 
  401d49:	c3                   	retq   
  401d4a:	bf 4c 30 40 00       	mov    $0x40304c,%edi
  401d4f:	b8 00 00 00 00       	mov    $0x0,%eax
  401d54:	e8 e7 ee ff ff       	callq  400c40 <printf@plt>
  401d59:	eb c6                	jmp    401d21 <launch+0x35>
  401d5b:	bf 59 30 40 00       	mov    $0x403059,%edi
  401d60:	e8 ab ee ff ff       	callq  400c10 <puts@plt>
  401d65:	b8 00 00 00 00       	mov    $0x0,%eax
  401d6a:	e8 49 fb ff ff       	callq  4018b8 <check_fail>

0000000000401d6f <stable_launch>:
  401d6f:	53                   	push   %rbx
  401d70:	48 89 3d 71 27 20 00 	mov    %rdi,0x202771(%rip)        # 6044e8 <global_offset>
  401d77:	41 b9 00 00 00 00    	mov    $0x0,%r9d
  401d7d:	41 b8 00 00 00 00    	mov    $0x0,%r8d
  401d83:	b9 32 01 00 00       	mov    $0x132,%ecx
  401d88:	ba 07 00 00 00       	mov    $0x7,%edx
  401d8d:	be 00 00 10 00       	mov    $0x100000,%esi
  401d92:	bf 00 60 58 55       	mov    $0x55586000,%edi
  401d97:	e8 94 ee ff ff       	callq  400c30 <mmap@plt>
  401d9c:	48 89 c3             	mov    %rax,%rbx
  401d9f:	48 3d 00 60 58 55    	cmp    $0x55586000,%rax
  401da5:	75 43                	jne    401dea <stable_launch+0x7b>
  401da7:	48 8d 90 f8 ff 0f 00 	lea    0xffff8(%rax),%rdx
  401dae:	48 89 15 7b 33 20 00 	mov    %rdx,0x20337b(%rip)        # 605130 <stack_top>
  401db5:	48 89 e0             	mov    %rsp,%rax
  401db8:	48 89 d4             	mov    %rdx,%rsp
  401dbb:	48 89 c2             	mov    %rax,%rdx
  401dbe:	48 89 15 1b 27 20 00 	mov    %rdx,0x20271b(%rip)        # 6044e0 <global_save_stack>
  401dc5:	48 8b 3d 1c 27 20 00 	mov    0x20271c(%rip),%rdi        # 6044e8 <global_offset>
  401dcc:	e8 1b ff ff ff       	callq  401cec <launch>
  401dd1:	48 8b 05 08 27 20 00 	mov    0x202708(%rip),%rax        # 6044e0 <global_save_stack>
  401dd8:	48 89 c4             	mov    %rax,%rsp
  401ddb:	be 00 00 10 00       	mov    $0x100000,%esi
  401de0:	48 89 df             	mov    %rbx,%rdi
  401de3:	e8 48 ef ff ff       	callq  400d30 <munmap@plt>
  401de8:	5b                   	pop    %rbx
  401de9:	c3                   	retq   
  401dea:	be 00 00 10 00       	mov    $0x100000,%esi
  401def:	48 89 c7             	mov    %rax,%rdi
  401df2:	e8 39 ef ff ff       	callq  400d30 <munmap@plt>
  401df7:	ba 00 60 58 55       	mov    $0x55586000,%edx
  401dfc:	be 18 32 40 00       	mov    $0x403218,%esi
  401e01:	48 8b 3d c0 26 20 00 	mov    0x2026c0(%rip),%rdi        # 6044c8 <stderr@@GLIBC_2.2.5>
  401e08:	b8 00 00 00 00       	mov    $0x0,%eax
  401e0d:	e8 be ee ff ff       	callq  400cd0 <fprintf@plt>
  401e12:	bf 01 00 00 00       	mov    $0x1,%edi
  401e17:	e8 84 ef ff ff       	callq  400da0 <exit@plt>

0000000000401e1c <rio_readinitb>:
  401e1c:	89 37                	mov    %esi,(%rdi)
  401e1e:	c7 47 04 00 00 00 00 	movl   $0x0,0x4(%rdi)
  401e25:	48 8d 47 10          	lea    0x10(%rdi),%rax
  401e29:	48 89 47 08          	mov    %rax,0x8(%rdi)
  401e2d:	c3                   	retq   

0000000000401e2e <sigalrm_handler>:
  401e2e:	48 83 ec 08          	sub    $0x8,%rsp
  401e32:	ba 00 00 00 00       	mov    $0x0,%edx
  401e37:	be 50 32 40 00       	mov    $0x403250,%esi
  401e3c:	48 8b 3d 85 26 20 00 	mov    0x202685(%rip),%rdi        # 6044c8 <stderr@@GLIBC_2.2.5>
  401e43:	b8 00 00 00 00       	mov    $0x0,%eax
  401e48:	e8 83 ee ff ff       	callq  400cd0 <fprintf@plt>
  401e4d:	bf 01 00 00 00       	mov    $0x1,%edi
  401e52:	e8 49 ef ff ff       	callq  400da0 <exit@plt>

0000000000401e57 <urlencode>:
  401e57:	41 54                	push   %r12
  401e59:	55                   	push   %rbp
  401e5a:	53                   	push   %rbx
  401e5b:	48 83 ec 10          	sub    $0x10,%rsp
  401e5f:	48 89 fb             	mov    %rdi,%rbx
  401e62:	48 89 f5             	mov    %rsi,%rbp
  401e65:	48 c7 c1 ff ff ff ff 	mov    $0xffffffffffffffff,%rcx
  401e6c:	b8 00 00 00 00       	mov    $0x0,%eax
  401e71:	f2 ae                	repnz scas %es:(%rdi),%al
  401e73:	48 89 ce             	mov    %rcx,%rsi
  401e76:	48 f7 d6             	not    %rsi
  401e79:	8d 46 ff             	lea    -0x1(%rsi),%eax
  401e7c:	eb 0e                	jmp    401e8c <urlencode+0x35>
  401e7e:	88 55 00             	mov    %dl,0x0(%rbp)
  401e81:	48 8d 6d 01          	lea    0x1(%rbp),%rbp
  401e85:	48 83 c3 01          	add    $0x1,%rbx
  401e89:	44 89 e0             	mov    %r12d,%eax
  401e8c:	44 8d 60 ff          	lea    -0x1(%rax),%r12d
  401e90:	85 c0                	test   %eax,%eax
  401e92:	0f 84 93 00 00 00    	je     401f2b <urlencode+0xd4>
  401e98:	0f b6 13             	movzbl (%rbx),%edx
  401e9b:	80 fa 2a             	cmp    $0x2a,%dl
  401e9e:	0f 94 c1             	sete   %cl
  401ea1:	80 fa 2d             	cmp    $0x2d,%dl
  401ea4:	0f 94 c0             	sete   %al
  401ea7:	08 c1                	or     %al,%cl
  401ea9:	75 d3                	jne    401e7e <urlencode+0x27>
  401eab:	80 fa 2e             	cmp    $0x2e,%dl
  401eae:	74 ce                	je     401e7e <urlencode+0x27>
  401eb0:	80 fa 5f             	cmp    $0x5f,%dl
  401eb3:	74 c9                	je     401e7e <urlencode+0x27>
  401eb5:	8d 42 d0             	lea    -0x30(%rdx),%eax
  401eb8:	3c 09                	cmp    $0x9,%al
  401eba:	76 c2                	jbe    401e7e <urlencode+0x27>
  401ebc:	8d 42 bf             	lea    -0x41(%rdx),%eax
  401ebf:	3c 19                	cmp    $0x19,%al
  401ec1:	76 bb                	jbe    401e7e <urlencode+0x27>
  401ec3:	8d 42 9f             	lea    -0x61(%rdx),%eax
  401ec6:	3c 19                	cmp    $0x19,%al
  401ec8:	76 b4                	jbe    401e7e <urlencode+0x27>
  401eca:	80 fa 20             	cmp    $0x20,%dl
  401ecd:	74 4a                	je     401f19 <urlencode+0xc2>
  401ecf:	8d 42 e0             	lea    -0x20(%rdx),%eax
  401ed2:	3c 5f                	cmp    $0x5f,%al
  401ed4:	0f 96 c1             	setbe  %cl
  401ed7:	80 fa 09             	cmp    $0x9,%dl
  401eda:	0f 94 c0             	sete   %al
  401edd:	08 c1                	or     %al,%cl
  401edf:	74 45                	je     401f26 <urlencode+0xcf>
  401ee1:	0f b6 d2             	movzbl %dl,%edx
  401ee4:	be e8 32 40 00       	mov    $0x4032e8,%esi
  401ee9:	48 8d 7c 24 08       	lea    0x8(%rsp),%rdi
  401eee:	b8 00 00 00 00       	mov    $0x0,%eax
  401ef3:	e8 98 ee ff ff       	callq  400d90 <sprintf@plt>
  401ef8:	0f b6 44 24 08       	movzbl 0x8(%rsp),%eax
  401efd:	88 45 00             	mov    %al,0x0(%rbp)
  401f00:	0f b6 44 24 09       	movzbl 0x9(%rsp),%eax
  401f05:	88 45 01             	mov    %al,0x1(%rbp)
  401f08:	0f b6 44 24 0a       	movzbl 0xa(%rsp),%eax
  401f0d:	88 45 02             	mov    %al,0x2(%rbp)
  401f10:	48 8d 6d 03          	lea    0x3(%rbp),%rbp
  401f14:	e9 6c ff ff ff       	jmpq   401e85 <urlencode+0x2e>
  401f19:	c6 45 00 2b          	movb   $0x2b,0x0(%rbp)
  401f1d:	48 8d 6d 01          	lea    0x1(%rbp),%rbp
  401f21:	e9 5f ff ff ff       	jmpq   401e85 <urlencode+0x2e>
  401f26:	b8 ff ff ff ff       	mov    $0xffffffff,%eax
  401f2b:	48 83 c4 10          	add    $0x10,%rsp
  401f2f:	5b                   	pop    %rbx
  401f30:	5d                   	pop    %rbp
  401f31:	41 5c                	pop    %r12
  401f33:	c3                   	retq   

0000000000401f34 <rio_writen>:
  401f34:	41 55                	push   %r13
  401f36:	41 54                	push   %r12
  401f38:	55                   	push   %rbp
  401f39:	53                   	push   %rbx
  401f3a:	48 83 ec 08          	sub    $0x8,%rsp
  401f3e:	41 89 fc             	mov    %edi,%r12d
  401f41:	48 89 f5             	mov    %rsi,%rbp
  401f44:	49 89 d5             	mov    %rdx,%r13
  401f47:	48 89 d3             	mov    %rdx,%rbx
  401f4a:	eb 06                	jmp    401f52 <rio_writen+0x1e>
  401f4c:	48 29 c3             	sub    %rax,%rbx
  401f4f:	48 01 c5             	add    %rax,%rbp
  401f52:	48 85 db             	test   %rbx,%rbx
  401f55:	74 24                	je     401f7b <rio_writen+0x47>
  401f57:	48 89 da             	mov    %rbx,%rdx
  401f5a:	48 89 ee             	mov    %rbp,%rsi
  401f5d:	44 89 e7             	mov    %r12d,%edi
  401f60:	e8 bb ec ff ff       	callq  400c20 <write@plt>
  401f65:	48 85 c0             	test   %rax,%rax
  401f68:	7f e2                	jg     401f4c <rio_writen+0x18>
  401f6a:	e8 61 ec ff ff       	callq  400bd0 <__errno_location@plt>
  401f6f:	83 38 04             	cmpl   $0x4,(%rax)
  401f72:	75 15                	jne    401f89 <rio_writen+0x55>
  401f74:	b8 00 00 00 00       	mov    $0x0,%eax
  401f79:	eb d1                	jmp    401f4c <rio_writen+0x18>
  401f7b:	4c 89 e8             	mov    %r13,%rax
  401f7e:	48 83 c4 08          	add    $0x8,%rsp
  401f82:	5b                   	pop    %rbx
  401f83:	5d                   	pop    %rbp
  401f84:	41 5c                	pop    %r12
  401f86:	41 5d                	pop    %r13
  401f88:	c3                   	retq   
  401f89:	48 c7 c0 ff ff ff ff 	mov    $0xffffffffffffffff,%rax
  401f90:	eb ec                	jmp    401f7e <rio_writen+0x4a>

0000000000401f92 <rio_read>:
  401f92:	41 55                	push   %r13
  401f94:	41 54                	push   %r12
  401f96:	55                   	push   %rbp
  401f97:	53                   	push   %rbx
  401f98:	48 83 ec 08          	sub    $0x8,%rsp
  401f9c:	48 89 fb             	mov    %rdi,%rbx
  401f9f:	49 89 f5             	mov    %rsi,%r13
  401fa2:	49 89 d4             	mov    %rdx,%r12
  401fa5:	eb 0a                	jmp    401fb1 <rio_read+0x1f>
  401fa7:	e8 24 ec ff ff       	callq  400bd0 <__errno_location@plt>
  401fac:	83 38 04             	cmpl   $0x4,(%rax)
  401faf:	75 5a                	jne    40200b <rio_read+0x79>
  401fb1:	8b 6b 04             	mov    0x4(%rbx),%ebp
  401fb4:	85 ed                	test   %ebp,%ebp
  401fb6:	7f 22                	jg     401fda <rio_read+0x48>
  401fb8:	48 8d 6b 10          	lea    0x10(%rbx),%rbp
  401fbc:	ba 00 20 00 00       	mov    $0x2000,%edx
  401fc1:	48 89 ee             	mov    %rbp,%rsi
  401fc4:	8b 3b                	mov    (%rbx),%edi
  401fc6:	e8 b5 ec ff ff       	callq  400c80 <read@plt>
  401fcb:	89 43 04             	mov    %eax,0x4(%rbx)
  401fce:	85 c0                	test   %eax,%eax
  401fd0:	78 d5                	js     401fa7 <rio_read+0x15>
  401fd2:	74 40                	je     402014 <rio_read+0x82>
  401fd4:	48 89 6b 08          	mov    %rbp,0x8(%rbx)
  401fd8:	eb d7                	jmp    401fb1 <rio_read+0x1f>
  401fda:	89 e8                	mov    %ebp,%eax
  401fdc:	4c 39 e0             	cmp    %r12,%rax
  401fdf:	72 03                	jb     401fe4 <rio_read+0x52>
  401fe1:	44 89 e5             	mov    %r12d,%ebp
  401fe4:	4c 63 e5             	movslq %ebp,%r12
  401fe7:	48 8b 73 08          	mov    0x8(%rbx),%rsi
  401feb:	4c 89 e2             	mov    %r12,%rdx
  401fee:	4c 89 ef             	mov    %r13,%rdi
  401ff1:	e8 aa ec ff ff       	callq  400ca0 <memcpy@plt>
  401ff6:	4c 01 63 08          	add    %r12,0x8(%rbx)
  401ffa:	29 6b 04             	sub    %ebp,0x4(%rbx)
  401ffd:	4c 89 e0             	mov    %r12,%rax
  402000:	48 83 c4 08          	add    $0x8,%rsp
  402004:	5b                   	pop    %rbx
  402005:	5d                   	pop    %rbp
  402006:	41 5c                	pop    %r12
  402008:	41 5d                	pop    %r13
  40200a:	c3                   	retq   
  40200b:	48 c7 c0 ff ff ff ff 	mov    $0xffffffffffffffff,%rax
  402012:	eb ec                	jmp    402000 <rio_read+0x6e>
  402014:	b8 00 00 00 00       	mov    $0x0,%eax
  402019:	eb e5                	jmp    402000 <rio_read+0x6e>

000000000040201b <rio_readlineb>:
  40201b:	41 55                	push   %r13
  40201d:	41 54                	push   %r12
  40201f:	55                   	push   %rbp
  402020:	53                   	push   %rbx
  402021:	48 83 ec 18          	sub    $0x18,%rsp
  402025:	49 89 fd             	mov    %rdi,%r13
  402028:	48 89 f5             	mov    %rsi,%rbp
  40202b:	49 89 d4             	mov    %rdx,%r12
  40202e:	bb 01 00 00 00       	mov    $0x1,%ebx
  402033:	4c 39 e3             	cmp    %r12,%rbx
  402036:	73 44                	jae    40207c <rio_readlineb+0x61>
  402038:	ba 01 00 00 00       	mov    $0x1,%edx
  40203d:	48 8d 74 24 0f       	lea    0xf(%rsp),%rsi
  402042:	4c 89 ef             	mov    %r13,%rdi
  402045:	e8 48 ff ff ff       	callq  401f92 <rio_read>
  40204a:	83 f8 01             	cmp    $0x1,%eax
  40204d:	75 19                	jne    402068 <rio_readlineb+0x4d>
  40204f:	48 8d 55 01          	lea    0x1(%rbp),%rdx
  402053:	0f b6 44 24 0f       	movzbl 0xf(%rsp),%eax
  402058:	88 45 00             	mov    %al,0x0(%rbp)
  40205b:	3c 0a                	cmp    $0xa,%al
  40205d:	74 1a                	je     402079 <rio_readlineb+0x5e>
  40205f:	48 83 c3 01          	add    $0x1,%rbx
  402063:	48 89 d5             	mov    %rdx,%rbp
  402066:	eb cb                	jmp    402033 <rio_readlineb+0x18>
  402068:	85 c0                	test   %eax,%eax
  40206a:	75 22                	jne    40208e <rio_readlineb+0x73>
  40206c:	48 83 fb 01          	cmp    $0x1,%rbx
  402070:	75 0a                	jne    40207c <rio_readlineb+0x61>
  402072:	b8 00 00 00 00       	mov    $0x0,%eax
  402077:	eb 0a                	jmp    402083 <rio_readlineb+0x68>
  402079:	48 89 d5             	mov    %rdx,%rbp
  40207c:	c6 45 00 00          	movb   $0x0,0x0(%rbp)
  402080:	48 89 d8             	mov    %rbx,%rax
  402083:	48 83 c4 18          	add    $0x18,%rsp
  402087:	5b                   	pop    %rbx
  402088:	5d                   	pop    %rbp
  402089:	41 5c                	pop    %r12
  40208b:	41 5d                	pop    %r13
  40208d:	c3                   	retq   
  40208e:	48 c7 c0 ff ff ff ff 	mov    $0xffffffffffffffff,%rax
  402095:	eb ec                	jmp    402083 <rio_readlineb+0x68>

0000000000402097 <submitr>:
  402097:	41 57                	push   %r15
  402099:	41 56                	push   %r14
  40209b:	41 55                	push   %r13
  40209d:	41 54                	push   %r12
  40209f:	55                   	push   %rbp
  4020a0:	53                   	push   %rbx
  4020a1:	48 81 ec 48 a0 00 00 	sub    $0xa048,%rsp
  4020a8:	49 89 fc             	mov    %rdi,%r12
  4020ab:	89 74 24 04          	mov    %esi,0x4(%rsp)
  4020af:	49 89 d7             	mov    %rdx,%r15
  4020b2:	49 89 ce             	mov    %rcx,%r14
  4020b5:	4c 89 44 24 08       	mov    %r8,0x8(%rsp)
  4020ba:	4d 89 cd             	mov    %r9,%r13
  4020bd:	48 8b ac 24 80 a0 00 	mov    0xa080(%rsp),%rbp
  4020c4:	00 
  4020c5:	c7 84 24 1c 20 00 00 	movl   $0x0,0x201c(%rsp)
  4020cc:	00 00 00 00 
  4020d0:	ba 00 00 00 00       	mov    $0x0,%edx
  4020d5:	be 01 00 00 00       	mov    $0x1,%esi
  4020da:	bf 02 00 00 00       	mov    $0x2,%edi
  4020df:	e8 dc ec ff ff       	callq  400dc0 <socket@plt>
  4020e4:	85 c0                	test   %eax,%eax
  4020e6:	0f 88 cd 01 00 00    	js     4022b9 <submitr+0x222>
  4020ec:	89 c3                	mov    %eax,%ebx
  4020ee:	4c 89 e7             	mov    %r12,%rdi
  4020f1:	e8 ca eb ff ff       	callq  400cc0 <gethostbyname@plt>
  4020f6:	48 85 c0             	test   %rax,%rax
  4020f9:	0f 84 09 02 00 00    	je     402308 <submitr+0x271>
  4020ff:	48 c7 84 24 32 a0 00 	movq   $0x0,0xa032(%rsp)
  402106:	00 00 00 00 00 
  40210b:	c7 84 24 3a a0 00 00 	movl   $0x0,0xa03a(%rsp)
  402112:	00 00 00 00 
  402116:	66 c7 84 24 3e a0 00 	movw   $0x0,0xa03e(%rsp)
  40211d:	00 00 00 
  402120:	66 c7 84 24 30 a0 00 	movw   $0x2,0xa030(%rsp)
  402127:	00 02 00 
  40212a:	48 8b 48 18          	mov    0x18(%rax),%rcx
  40212e:	48 63 50 14          	movslq 0x14(%rax),%rdx
  402132:	48 8d bc 24 34 a0 00 	lea    0xa034(%rsp),%rdi
  402139:	00 
  40213a:	48 8b 31             	mov    (%rcx),%rsi
  40213d:	e8 fe eb ff ff       	callq  400d40 <memmove@plt>
  402142:	0f b7 44 24 04       	movzwl 0x4(%rsp),%eax
  402147:	66 c1 c8 08          	ror    $0x8,%ax
  40214b:	66 89 84 24 32 a0 00 	mov    %ax,0xa032(%rsp)
  402152:	00 
  402153:	ba 10 00 00 00       	mov    $0x10,%edx
  402158:	48 8d b4 24 30 a0 00 	lea    0xa030(%rsp),%rsi
  40215f:	00 
  402160:	89 df                	mov    %ebx,%edi
  402162:	e8 49 ec ff ff       	callq  400db0 <connect@plt>
  402167:	85 c0                	test   %eax,%eax
  402169:	0f 88 01 02 00 00    	js     402370 <submitr+0x2d9>
  40216f:	48 c7 c6 ff ff ff ff 	mov    $0xffffffffffffffff,%rsi
  402176:	b8 00 00 00 00       	mov    $0x0,%eax
  40217b:	48 89 f1             	mov    %rsi,%rcx
  40217e:	4c 89 ef             	mov    %r13,%rdi
  402181:	f2 ae                	repnz scas %es:(%rdi),%al
  402183:	48 89 ca             	mov    %rcx,%rdx
  402186:	48 f7 d2             	not    %rdx
  402189:	48 89 f1             	mov    %rsi,%rcx
  40218c:	4c 89 ff             	mov    %r15,%rdi
  40218f:	f2 ae                	repnz scas %es:(%rdi),%al
  402191:	48 f7 d1             	not    %rcx
  402194:	49 89 c8             	mov    %rcx,%r8
  402197:	48 89 f1             	mov    %rsi,%rcx
  40219a:	4c 89 f7             	mov    %r14,%rdi
  40219d:	f2 ae                	repnz scas %es:(%rdi),%al
  40219f:	48 f7 d1             	not    %rcx
  4021a2:	4d 8d 44 08 fe       	lea    -0x2(%r8,%rcx,1),%r8
  4021a7:	48 89 f1             	mov    %rsi,%rcx
  4021aa:	48 8b 7c 24 08       	mov    0x8(%rsp),%rdi
  4021af:	f2 ae                	repnz scas %es:(%rdi),%al
  4021b1:	48 89 c8             	mov    %rcx,%rax
  4021b4:	48 f7 d0             	not    %rax
  4021b7:	49 8d 4c 00 ff       	lea    -0x1(%r8,%rax,1),%rcx
  4021bc:	48 8d 44 52 fd       	lea    -0x3(%rdx,%rdx,2),%rax
  4021c1:	48 8d 84 01 80 00 00 	lea    0x80(%rcx,%rax,1),%rax
  4021c8:	00 
  4021c9:	48 3d 00 20 00 00    	cmp    $0x2000,%rax
  4021cf:	0f 87 f5 01 00 00    	ja     4023ca <submitr+0x333>
  4021d5:	48 8d b4 24 20 40 00 	lea    0x4020(%rsp),%rsi
  4021dc:	00 
  4021dd:	b9 00 04 00 00       	mov    $0x400,%ecx
  4021e2:	b8 00 00 00 00       	mov    $0x0,%eax
  4021e7:	48 89 f7             	mov    %rsi,%rdi
  4021ea:	f3 48 ab             	rep stos %rax,%es:(%rdi)
  4021ed:	4c 89 ef             	mov    %r13,%rdi
  4021f0:	e8 62 fc ff ff       	callq  401e57 <urlencode>
  4021f5:	85 c0                	test   %eax,%eax
  4021f7:	0f 88 40 02 00 00    	js     40243d <submitr+0x3a6>
  4021fd:	4c 8d ac 24 20 60 00 	lea    0x6020(%rsp),%r13
  402204:	00 
  402205:	4d 89 e1             	mov    %r12,%r9
  402208:	4c 8d 84 24 20 40 00 	lea    0x4020(%rsp),%r8
  40220f:	00 
  402210:	4c 89 f9             	mov    %r15,%rcx
  402213:	4c 89 f2             	mov    %r14,%rdx
  402216:	be 78 32 40 00       	mov    $0x403278,%esi
  40221b:	4c 89 ef             	mov    %r13,%rdi
  40221e:	b8 00 00 00 00       	mov    $0x0,%eax
  402223:	e8 68 eb ff ff       	callq  400d90 <sprintf@plt>
  402228:	48 c7 c1 ff ff ff ff 	mov    $0xffffffffffffffff,%rcx
  40222f:	b8 00 00 00 00       	mov    $0x0,%eax
  402234:	4c 89 ef             	mov    %r13,%rdi
  402237:	f2 ae                	repnz scas %es:(%rdi),%al
  402239:	48 89 ca             	mov    %rcx,%rdx
  40223c:	48 f7 d2             	not    %rdx
  40223f:	48 8d 52 ff          	lea    -0x1(%rdx),%rdx
  402243:	4c 89 ee             	mov    %r13,%rsi
  402246:	89 df                	mov    %ebx,%edi
  402248:	e8 e7 fc ff ff       	callq  401f34 <rio_writen>
  40224d:	48 85 c0             	test   %rax,%rax
  402250:	0f 88 72 02 00 00    	js     4024c8 <submitr+0x431>
  402256:	89 de                	mov    %ebx,%esi
  402258:	48 8d bc 24 20 80 00 	lea    0x8020(%rsp),%rdi
  40225f:	00 
  402260:	e8 b7 fb ff ff       	callq  401e1c <rio_readinitb>
  402265:	ba 00 20 00 00       	mov    $0x2000,%edx
  40226a:	48 8d b4 24 20 60 00 	lea    0x6020(%rsp),%rsi
  402271:	00 
  402272:	48 8d bc 24 20 80 00 	lea    0x8020(%rsp),%rdi
  402279:	00 
  40227a:	e8 9c fd ff ff       	callq  40201b <rio_readlineb>
  40227f:	48 85 c0             	test   %rax,%rax
  402282:	0f 8e af 02 00 00    	jle    402537 <submitr+0x4a0>
  402288:	4c 8d 44 24 10       	lea    0x10(%rsp),%r8
  40228d:	48 8d 8c 24 1c 20 00 	lea    0x201c(%rsp),%rcx
  402294:	00 
  402295:	48 8d 94 24 20 20 00 	lea    0x2020(%rsp),%rdx
  40229c:	00 
  40229d:	be ef 32 40 00       	mov    $0x4032ef,%esi
  4022a2:	48 8d bc 24 20 60 00 	lea    0x6020(%rsp),%rdi
  4022a9:	00 
  4022aa:	b8 00 00 00 00       	mov    $0x0,%eax
  4022af:	e8 6c ea ff ff       	callq  400d20 <__isoc99_sscanf@plt>
  4022b4:	e9 a7 03 00 00       	jmpq   402660 <submitr+0x5c9>
  4022b9:	48 b8 45 72 72 6f 72 	mov    $0x43203a726f727245,%rax
  4022c0:	3a 20 43 
  4022c3:	48 ba 6c 69 65 6e 74 	mov    $0x6e7520746e65696c,%rdx
  4022ca:	20 75 6e 
  4022cd:	48 89 45 00          	mov    %rax,0x0(%rbp)
  4022d1:	48 89 55 08          	mov    %rdx,0x8(%rbp)
  4022d5:	48 b8 61 62 6c 65 20 	mov    $0x206f7420656c6261,%rax
  4022dc:	74 6f 20 
  4022df:	48 ba 63 72 65 61 74 	mov    $0x7320657461657263,%rdx
  4022e6:	65 20 73 
  4022e9:	48 89 45 10          	mov    %rax,0x10(%rbp)
  4022ed:	48 89 55 18          	mov    %rdx,0x18(%rbp)
  4022f1:	c7 45 20 6f 63 6b 65 	movl   $0x656b636f,0x20(%rbp)
  4022f8:	66 c7 45 24 74 00    	movw   $0x74,0x24(%rbp)
  4022fe:	b8 ff ff ff ff       	mov    $0xffffffff,%eax
  402303:	e9 1f 03 00 00       	jmpq   402627 <submitr+0x590>
  402308:	48 b8 45 72 72 6f 72 	mov    $0x44203a726f727245,%rax
  40230f:	3a 20 44 
  402312:	48 ba 4e 53 20 69 73 	mov    $0x6e7520736920534e,%rdx
  402319:	20 75 6e 
  40231c:	48 89 45 00          	mov    %rax,0x0(%rbp)
  402320:	48 89 55 08          	mov    %rdx,0x8(%rbp)
  402324:	48 b8 61 62 6c 65 20 	mov    $0x206f7420656c6261,%rax
  40232b:	74 6f 20 
  40232e:	48 ba 72 65 73 6f 6c 	mov    $0x2065766c6f736572,%rdx
  402335:	76 65 20 
  402338:	48 89 45 10          	mov    %rax,0x10(%rbp)
  40233c:	48 89 55 18          	mov    %rdx,0x18(%rbp)
  402340:	48 b8 73 65 72 76 65 	mov    $0x6120726576726573,%rax
  402347:	72 20 61 
  40234a:	48 89 45 20          	mov    %rax,0x20(%rbp)
  40234e:	c7 45 28 64 64 72 65 	movl   $0x65726464,0x28(%rbp)
  402355:	66 c7 45 2c 73 73    	movw   $0x7373,0x2c(%rbp)
  40235b:	c6 45 2e 00          	movb   $0x0,0x2e(%rbp)
  40235f:	89 df                	mov    %ebx,%edi
  402361:	e8 0a e9 ff ff       	callq  400c70 <close@plt>
  402366:	b8 ff ff ff ff       	mov    $0xffffffff,%eax
  40236b:	e9 b7 02 00 00       	jmpq   402627 <submitr+0x590>
  402370:	48 b8 45 72 72 6f 72 	mov    $0x55203a726f727245,%rax
  402377:	3a 20 55 
  40237a:	48 ba 6e 61 62 6c 65 	mov    $0x6f7420656c62616e,%rdx
  402381:	20 74 6f 
  402384:	48 89 45 00          	mov    %rax,0x0(%rbp)
  402388:	48 89 55 08          	mov    %rdx,0x8(%rbp)
  40238c:	48 b8 20 63 6f 6e 6e 	mov    $0x7463656e6e6f6320,%rax
  402393:	65 63 74 
  402396:	48 ba 20 74 6f 20 74 	mov    $0x20656874206f7420,%rdx
  40239d:	68 65 20 
  4023a0:	48 89 45 10          	mov    %rax,0x10(%rbp)
  4023a4:	48 89 55 18          	mov    %rdx,0x18(%rbp)
  4023a8:	c7 45 20 73 65 72 76 	movl   $0x76726573,0x20(%rbp)
  4023af:	66 c7 45 24 65 72    	movw   $0x7265,0x24(%rbp)
  4023b5:	c6 45 26 00          	movb   $0x0,0x26(%rbp)
  4023b9:	89 df                	mov    %ebx,%edi
  4023bb:	e8 b0 e8 ff ff       	callq  400c70 <close@plt>
  4023c0:	b8 ff ff ff ff       	mov    $0xffffffff,%eax
  4023c5:	e9 5d 02 00 00       	jmpq   402627 <submitr+0x590>
  4023ca:	48 b8 45 72 72 6f 72 	mov    $0x52203a726f727245,%rax
  4023d1:	3a 20 52 
  4023d4:	48 ba 65 73 75 6c 74 	mov    $0x747320746c757365,%rdx
  4023db:	20 73 74 
  4023de:	48 89 45 00          	mov    %rax,0x0(%rbp)
  4023e2:	48 89 55 08          	mov    %rdx,0x8(%rbp)
  4023e6:	48 b8 72 69 6e 67 20 	mov    $0x6f6f7420676e6972,%rax
  4023ed:	74 6f 6f 
  4023f0:	48 ba 20 6c 61 72 67 	mov    $0x202e656772616c20,%rdx
  4023f7:	65 2e 20 
  4023fa:	48 89 45 10          	mov    %rax,0x10(%rbp)
  4023fe:	48 89 55 18          	mov    %rdx,0x18(%rbp)
  402402:	48 b8 49 6e 63 72 65 	mov    $0x6573616572636e49,%rax
  402409:	61 73 65 
  40240c:	48 ba 20 53 55 42 4d 	mov    $0x5254494d42555320,%rdx
  402413:	49 54 52 
  402416:	48 89 45 20          	mov    %rax,0x20(%rbp)
  40241a:	48 89 55 28          	mov    %rdx,0x28(%rbp)
  40241e:	48 b8 5f 4d 41 58 42 	mov    $0x46554258414d5f,%rax
  402425:	55 46 00 
  402428:	48 89 45 30          	mov    %rax,0x30(%rbp)
  40242c:	89 df                	mov    %ebx,%edi
  40242e:	e8 3d e8 ff ff       	callq  400c70 <close@plt>
  402433:	b8 ff ff ff ff       	mov    $0xffffffff,%eax
  402438:	e9 ea 01 00 00       	jmpq   402627 <submitr+0x590>
  40243d:	48 b8 45 72 72 6f 72 	mov    $0x52203a726f727245,%rax
  402444:	3a 20 52 
  402447:	48 ba 65 73 75 6c 74 	mov    $0x747320746c757365,%rdx
  40244e:	20 73 74 
  402451:	48 89 45 00          	mov    %rax,0x0(%rbp)
  402455:	48 89 55 08          	mov    %rdx,0x8(%rbp)
  402459:	48 b8 72 69 6e 67 20 	mov    $0x6e6f6320676e6972,%rax
  402460:	63 6f 6e 
  402463:	48 ba 74 61 69 6e 73 	mov    $0x6e6120736e696174,%rdx
  40246a:	20 61 6e 
  40246d:	48 89 45 10          	mov    %rax,0x10(%rbp)
  402471:	48 89 55 18          	mov    %rdx,0x18(%rbp)
  402475:	48 b8 20 69 6c 6c 65 	mov    $0x6c6167656c6c6920,%rax
  40247c:	67 61 6c 
  40247f:	48 ba 20 6f 72 20 75 	mov    $0x72706e7520726f20,%rdx
  402486:	6e 70 72 
  402489:	48 89 45 20          	mov    %rax,0x20(%rbp)
  40248d:	48 89 55 28          	mov    %rdx,0x28(%rbp)
  402491:	48 b8 69 6e 74 61 62 	mov    $0x20656c6261746e69,%rax
  402498:	6c 65 20 
  40249b:	48 ba 63 68 61 72 61 	mov    $0x6574636172616863,%rdx
  4024a2:	63 74 65 
  4024a5:	48 89 45 30          	mov    %rax,0x30(%rbp)
  4024a9:	48 89 55 38          	mov    %rdx,0x38(%rbp)
  4024ad:	66 c7 45 40 72 2e    	movw   $0x2e72,0x40(%rbp)
  4024b3:	c6 45 42 00          	movb   $0x0,0x42(%rbp)
  4024b7:	89 df                	mov    %ebx,%edi
  4024b9:	e8 b2 e7 ff ff       	callq  400c70 <close@plt>
  4024be:	b8 ff ff ff ff       	mov    $0xffffffff,%eax
  4024c3:	e9 5f 01 00 00       	jmpq   402627 <submitr+0x590>
  4024c8:	48 b8 45 72 72 6f 72 	mov    $0x43203a726f727245,%rax
  4024cf:	3a 20 43 
  4024d2:	48 ba 6c 69 65 6e 74 	mov    $0x6e7520746e65696c,%rdx
  4024d9:	20 75 6e 
  4024dc:	48 89 45 00          	mov    %rax,0x0(%rbp)
  4024e0:	48 89 55 08          	mov    %rdx,0x8(%rbp)
  4024e4:	48 b8 61 62 6c 65 20 	mov    $0x206f7420656c6261,%rax
  4024eb:	74 6f 20 
  4024ee:	48 ba 77 72 69 74 65 	mov    $0x6f74206574697277,%rdx
  4024f5:	20 74 6f 
  4024f8:	48 89 45 10          	mov    %rax,0x10(%rbp)
  4024fc:	48 89 55 18          	mov    %rdx,0x18(%rbp)
  402500:	48 b8 20 74 68 65 20 	mov    $0x7365722065687420,%rax
  402507:	72 65 73 
  40250a:	48 ba 75 6c 74 20 73 	mov    $0x7672657320746c75,%rdx
  402511:	65 72 76 
  402514:	48 89 45 20          	mov    %rax,0x20(%rbp)
  402518:	48 89 55 28          	mov    %rdx,0x28(%rbp)
  40251c:	66 c7 45 30 65 72    	movw   $0x7265,0x30(%rbp)
  402522:	c6 45 32 00          	movb   $0x0,0x32(%rbp)
  402526:	89 df                	mov    %ebx,%edi
  402528:	e8 43 e7 ff ff       	callq  400c70 <close@plt>
  40252d:	b8 ff ff ff ff       	mov    $0xffffffff,%eax
  402532:	e9 f0 00 00 00       	jmpq   402627 <submitr+0x590>
  402537:	48 b8 45 72 72 6f 72 	mov    $0x43203a726f727245,%rax
  40253e:	3a 20 43 
  402541:	48 ba 6c 69 65 6e 74 	mov    $0x6e7520746e65696c,%rdx
  402548:	20 75 6e 
  40254b:	48 89 45 00          	mov    %rax,0x0(%rbp)
  40254f:	48 89 55 08          	mov    %rdx,0x8(%rbp)
  402553:	48 b8 61 62 6c 65 20 	mov    $0x206f7420656c6261,%rax
  40255a:	74 6f 20 
  40255d:	48 ba 72 65 61 64 20 	mov    $0x7269662064616572,%rdx
  402564:	66 69 72 
  402567:	48 89 45 10          	mov    %rax,0x10(%rbp)
  40256b:	48 89 55 18          	mov    %rdx,0x18(%rbp)
  40256f:	48 b8 73 74 20 68 65 	mov    $0x6564616568207473,%rax
  402576:	61 64 65 
  402579:	48 ba 72 20 66 72 6f 	mov    $0x72206d6f72662072,%rdx
  402580:	6d 20 72 
  402583:	48 89 45 20          	mov    %rax,0x20(%rbp)
  402587:	48 89 55 28          	mov    %rdx,0x28(%rbp)
  40258b:	48 b8 65 73 75 6c 74 	mov    $0x657320746c757365,%rax
  402592:	20 73 65 
  402595:	48 89 45 30          	mov    %rax,0x30(%rbp)
  402599:	c7 45 38 72 76 65 72 	movl   $0x72657672,0x38(%rbp)
  4025a0:	c6 45 3c 00          	movb   $0x0,0x3c(%rbp)
  4025a4:	89 df                	mov    %ebx,%edi
  4025a6:	e8 c5 e6 ff ff       	callq  400c70 <close@plt>
  4025ab:	b8 ff ff ff ff       	mov    $0xffffffff,%eax
  4025b0:	eb 75                	jmp    402627 <submitr+0x590>
  4025b2:	48 b8 45 72 72 6f 72 	mov    $0x43203a726f727245,%rax
  4025b9:	3a 20 43 
  4025bc:	48 ba 6c 69 65 6e 74 	mov    $0x6e7520746e65696c,%rdx
  4025c3:	20 75 6e 
  4025c6:	48 89 45 00          	mov    %rax,0x0(%rbp)
  4025ca:	48 89 55 08          	mov    %rdx,0x8(%rbp)
  4025ce:	48 b8 61 62 6c 65 20 	mov    $0x206f7420656c6261,%rax
  4025d5:	74 6f 20 
  4025d8:	48 ba 72 65 61 64 20 	mov    $0x6165682064616572,%rdx
  4025df:	68 65 61 
  4025e2:	48 89 45 10          	mov    %rax,0x10(%rbp)
  4025e6:	48 89 55 18          	mov    %rdx,0x18(%rbp)
  4025ea:	48 b8 64 65 72 73 20 	mov    $0x6f72662073726564,%rax
  4025f1:	66 72 6f 
  4025f4:	48 ba 6d 20 74 68 65 	mov    $0x657220656874206d,%rdx
  4025fb:	20 72 65 
  4025fe:	48 89 45 20          	mov    %rax,0x20(%rbp)
  402602:	48 89 55 28          	mov    %rdx,0x28(%rbp)
  402606:	48 b8 73 75 6c 74 20 	mov    $0x72657320746c7573,%rax
  40260d:	73 65 72 
  402610:	48 89 45 30          	mov    %rax,0x30(%rbp)
  402614:	c7 45 38 76 65 72 00 	movl   $0x726576,0x38(%rbp)
  40261b:	89 df                	mov    %ebx,%edi
  40261d:	e8 4e e6 ff ff       	callq  400c70 <close@plt>
  402622:	b8 ff ff ff ff       	mov    $0xffffffff,%eax
  402627:	48 81 c4 48 a0 00 00 	add    $0xa048,%rsp
  40262e:	5b                   	pop    %rbx
  40262f:	5d                   	pop    %rbp
  402630:	41 5c                	pop    %r12
  402632:	41 5d                	pop    %r13
  402634:	41 5e                	pop    %r14
  402636:	41 5f                	pop    %r15
  402638:	c3                   	retq   
  402639:	85 c0                	test   %eax,%eax
  40263b:	74 47                	je     402684 <submitr+0x5ed>
  40263d:	ba 00 20 00 00       	mov    $0x2000,%edx
  402642:	48 8d b4 24 20 60 00 	lea    0x6020(%rsp),%rsi
  402649:	00 
  40264a:	48 8d bc 24 20 80 00 	lea    0x8020(%rsp),%rdi
  402651:	00 
  402652:	e8 c4 f9 ff ff       	callq  40201b <rio_readlineb>
  402657:	48 85 c0             	test   %rax,%rax
  40265a:	0f 8e 52 ff ff ff    	jle    4025b2 <submitr+0x51b>
  402660:	0f b6 84 24 20 60 00 	movzbl 0x6020(%rsp),%eax
  402667:	00 
  402668:	83 e8 0d             	sub    $0xd,%eax
  40266b:	75 cc                	jne    402639 <submitr+0x5a2>
  40266d:	0f b6 84 24 21 60 00 	movzbl 0x6021(%rsp),%eax
  402674:	00 
  402675:	83 e8 0a             	sub    $0xa,%eax
  402678:	75 bf                	jne    402639 <submitr+0x5a2>
  40267a:	0f b6 84 24 22 60 00 	movzbl 0x6022(%rsp),%eax
  402681:	00 
  402682:	eb b5                	jmp    402639 <submitr+0x5a2>
  402684:	ba 00 20 00 00       	mov    $0x2000,%edx
  402689:	48 8d b4 24 20 60 00 	lea    0x6020(%rsp),%rsi
  402690:	00 
  402691:	48 8d bc 24 20 80 00 	lea    0x8020(%rsp),%rdi
  402698:	00 
  402699:	e8 7d f9 ff ff       	callq  40201b <rio_readlineb>
  40269e:	48 85 c0             	test   %rax,%rax
  4026a1:	7e 5a                	jle    4026fd <submitr+0x666>
  4026a3:	8b 94 24 1c 20 00 00 	mov    0x201c(%rsp),%edx
  4026aa:	81 fa c8 00 00 00    	cmp    $0xc8,%edx
  4026b0:	0f 85 cb 00 00 00    	jne    402781 <submitr+0x6ea>
  4026b6:	48 8d b4 24 20 60 00 	lea    0x6020(%rsp),%rsi
  4026bd:	00 
  4026be:	48 89 ef             	mov    %rbp,%rdi
  4026c1:	e8 3a e5 ff ff       	callq  400c00 <strcpy@plt>
  4026c6:	89 df                	mov    %ebx,%edi
  4026c8:	e8 a3 e5 ff ff       	callq  400c70 <close@plt>
  4026cd:	0f b6 55 00          	movzbl 0x0(%rbp),%edx
  4026d1:	83 ea 4f             	sub    $0x4f,%edx
  4026d4:	0f 85 cf 00 00 00    	jne    4027a9 <submitr+0x712>
  4026da:	0f b6 45 01          	movzbl 0x1(%rbp),%eax
  4026de:	83 e8 4b             	sub    $0x4b,%eax
  4026e1:	0f 85 c4 00 00 00    	jne    4027ab <submitr+0x714>
  4026e7:	0f b6 45 02          	movzbl 0x2(%rbp),%eax
  4026eb:	83 e8 0a             	sub    $0xa,%eax
  4026ee:	0f 85 b7 00 00 00    	jne    4027ab <submitr+0x714>
  4026f4:	0f b6 45 03          	movzbl 0x3(%rbp),%eax
  4026f8:	e9 ae 00 00 00       	jmpq   4027ab <submitr+0x714>
  4026fd:	48 b8 45 72 72 6f 72 	mov    $0x43203a726f727245,%rax
  402704:	3a 20 43 
  402707:	48 ba 6c 69 65 6e 74 	mov    $0x6e7520746e65696c,%rdx
  40270e:	20 75 6e 
  402711:	48 89 45 00          	mov    %rax,0x0(%rbp)
  402715:	48 89 55 08          	mov    %rdx,0x8(%rbp)
  402719:	48 b8 61 62 6c 65 20 	mov    $0x206f7420656c6261,%rax
  402720:	74 6f 20 
  402723:	48 ba 72 65 61 64 20 	mov    $0x6174732064616572,%rdx
  40272a:	73 74 61 
  40272d:	48 89 45 10          	mov    %rax,0x10(%rbp)
  402731:	48 89 55 18          	mov    %rdx,0x18(%rbp)
  402735:	48 b8 74 75 73 20 6d 	mov    $0x7373656d20737574,%rax
  40273c:	65 73 73 
  40273f:	48 ba 61 67 65 20 66 	mov    $0x6d6f726620656761,%rdx
  402746:	72 6f 6d 
  402749:	48 89 45 20          	mov    %rax,0x20(%rbp)
  40274d:	48 89 55 28          	mov    %rdx,0x28(%rbp)
  402751:	48 b8 20 72 65 73 75 	mov    $0x20746c7573657220,%rax
  402758:	6c 74 20 
  40275b:	48 89 45 30          	mov    %rax,0x30(%rbp)
  40275f:	c7 45 38 73 65 72 76 	movl   $0x76726573,0x38(%rbp)
  402766:	66 c7 45 3c 65 72    	movw   $0x7265,0x3c(%rbp)
  40276c:	c6 45 3e 00          	movb   $0x0,0x3e(%rbp)
  402770:	89 df                	mov    %ebx,%edi
  402772:	e8 f9 e4 ff ff       	callq  400c70 <close@plt>
  402777:	b8 ff ff ff ff       	mov    $0xffffffff,%eax
  40277c:	e9 a6 fe ff ff       	jmpq   402627 <submitr+0x590>
  402781:	48 8d 4c 24 10       	lea    0x10(%rsp),%rcx
  402786:	be b8 32 40 00       	mov    $0x4032b8,%esi
  40278b:	48 89 ef             	mov    %rbp,%rdi
  40278e:	b8 00 00 00 00       	mov    $0x0,%eax
  402793:	e8 f8 e5 ff ff       	callq  400d90 <sprintf@plt>
  402798:	89 df                	mov    %ebx,%edi
  40279a:	e8 d1 e4 ff ff       	callq  400c70 <close@plt>
  40279f:	b8 ff ff ff ff       	mov    $0xffffffff,%eax
  4027a4:	e9 7e fe ff ff       	jmpq   402627 <submitr+0x590>
  4027a9:	89 d0                	mov    %edx,%eax
  4027ab:	85 c0                	test   %eax,%eax
  4027ad:	0f 84 74 fe ff ff    	je     402627 <submitr+0x590>
  4027b3:	bf 00 33 40 00       	mov    $0x403300,%edi
  4027b8:	b9 05 00 00 00       	mov    $0x5,%ecx
  4027bd:	48 89 ee             	mov    %rbp,%rsi
  4027c0:	f3 a6                	repz cmpsb %es:(%rdi),%ds:(%rsi)
  4027c2:	0f 97 c0             	seta   %al
  4027c5:	1c 00                	sbb    $0x0,%al
  4027c7:	0f be c0             	movsbl %al,%eax
  4027ca:	85 c0                	test   %eax,%eax
  4027cc:	0f 84 55 fe ff ff    	je     402627 <submitr+0x590>
  4027d2:	85 d2                	test   %edx,%edx
  4027d4:	75 0d                	jne    4027e3 <submitr+0x74c>
  4027d6:	0f b6 55 01          	movzbl 0x1(%rbp),%edx
  4027da:	83 ea 4b             	sub    $0x4b,%edx
  4027dd:	75 04                	jne    4027e3 <submitr+0x74c>
  4027df:	0f b6 55 02          	movzbl 0x2(%rbp),%edx
  4027e3:	85 d2                	test   %edx,%edx
  4027e5:	75 07                	jne    4027ee <submitr+0x757>
  4027e7:	89 d0                	mov    %edx,%eax
  4027e9:	e9 39 fe ff ff       	jmpq   402627 <submitr+0x590>
  4027ee:	b8 ff ff ff ff       	mov    $0xffffffff,%eax
  4027f3:	e9 2f fe ff ff       	jmpq   402627 <submitr+0x590>

00000000004027f8 <init_timeout>:
  4027f8:	85 ff                	test   %edi,%edi
  4027fa:	74 24                	je     402820 <init_timeout+0x28>
  4027fc:	53                   	push   %rbx
  4027fd:	89 fb                	mov    %edi,%ebx
  4027ff:	78 18                	js     402819 <init_timeout+0x21>
  402801:	be 2e 1e 40 00       	mov    $0x401e2e,%esi
  402806:	bf 0e 00 00 00       	mov    $0xe,%edi
  40280b:	e8 a0 e4 ff ff       	callq  400cb0 <signal@plt>
  402810:	89 df                	mov    %ebx,%edi
  402812:	e8 49 e4 ff ff       	callq  400c60 <alarm@plt>
  402817:	5b                   	pop    %rbx
  402818:	c3                   	retq   
  402819:	bb 00 00 00 00       	mov    $0x0,%ebx
  40281e:	eb e1                	jmp    402801 <init_timeout+0x9>
  402820:	c3                   	retq   

0000000000402821 <init_driver>:
  402821:	55                   	push   %rbp
  402822:	53                   	push   %rbx
  402823:	48 83 ec 18          	sub    $0x18,%rsp
  402827:	48 89 fd             	mov    %rdi,%rbp
  40282a:	be 01 00 00 00       	mov    $0x1,%esi
  40282f:	bf 0d 00 00 00       	mov    $0xd,%edi
  402834:	e8 77 e4 ff ff       	callq  400cb0 <signal@plt>
  402839:	be 01 00 00 00       	mov    $0x1,%esi
  40283e:	bf 1d 00 00 00       	mov    $0x1d,%edi
  402843:	e8 68 e4 ff ff       	callq  400cb0 <signal@plt>
  402848:	be 01 00 00 00       	mov    $0x1,%esi
  40284d:	bf 1d 00 00 00       	mov    $0x1d,%edi
  402852:	e8 59 e4 ff ff       	callq  400cb0 <signal@plt>
  402857:	ba 00 00 00 00       	mov    $0x0,%edx
  40285c:	be 01 00 00 00       	mov    $0x1,%esi
  402861:	bf 02 00 00 00       	mov    $0x2,%edi
  402866:	e8 55 e5 ff ff       	callq  400dc0 <socket@plt>
  40286b:	85 c0                	test   %eax,%eax
  40286d:	0f 88 83 00 00 00    	js     4028f6 <init_driver+0xd5>
  402873:	89 c3                	mov    %eax,%ebx
  402875:	bf 4a 2e 40 00       	mov    $0x402e4a,%edi
  40287a:	e8 41 e4 ff ff       	callq  400cc0 <gethostbyname@plt>
  40287f:	48 85 c0             	test   %rax,%rax
  402882:	0f 84 ba 00 00 00    	je     402942 <init_driver+0x121>
  402888:	48 c7 44 24 02 00 00 	movq   $0x0,0x2(%rsp)
  40288f:	00 00 
  402891:	c7 44 24 0a 00 00 00 	movl   $0x0,0xa(%rsp)
  402898:	00 
  402899:	66 c7 44 24 0e 00 00 	movw   $0x0,0xe(%rsp)
  4028a0:	66 c7 04 24 02 00    	movw   $0x2,(%rsp)
  4028a6:	48 8b 48 18          	mov    0x18(%rax),%rcx
  4028aa:	48 63 50 14          	movslq 0x14(%rax),%rdx
  4028ae:	48 8d 7c 24 04       	lea    0x4(%rsp),%rdi
  4028b3:	48 8b 31             	mov    (%rcx),%rsi
  4028b6:	e8 85 e4 ff ff       	callq  400d40 <memmove@plt>
  4028bb:	66 c7 44 24 02 3c 9a 	movw   $0x9a3c,0x2(%rsp)
  4028c2:	ba 10 00 00 00       	mov    $0x10,%edx
  4028c7:	48 89 e6             	mov    %rsp,%rsi
  4028ca:	89 df                	mov    %ebx,%edi
  4028cc:	e8 df e4 ff ff       	callq  400db0 <connect@plt>
  4028d1:	85 c0                	test   %eax,%eax
  4028d3:	0f 88 d1 00 00 00    	js     4029aa <init_driver+0x189>
  4028d9:	89 df                	mov    %ebx,%edi
  4028db:	e8 90 e3 ff ff       	callq  400c70 <close@plt>
  4028e0:	66 c7 45 00 4f 4b    	movw   $0x4b4f,0x0(%rbp)
  4028e6:	c6 45 02 00          	movb   $0x0,0x2(%rbp)
  4028ea:	b8 00 00 00 00       	mov    $0x0,%eax
  4028ef:	48 83 c4 18          	add    $0x18,%rsp
  4028f3:	5b                   	pop    %rbx
  4028f4:	5d                   	pop    %rbp
  4028f5:	c3                   	retq   
  4028f6:	48 b8 45 72 72 6f 72 	mov    $0x43203a726f727245,%rax
  4028fd:	3a 20 43 
  402900:	48 ba 6c 69 65 6e 74 	mov    $0x6e7520746e65696c,%rdx
  402907:	20 75 6e 
  40290a:	48 89 45 00          	mov    %rax,0x0(%rbp)
  40290e:	48 89 55 08          	mov    %rdx,0x8(%rbp)
  402912:	48 b8 61 62 6c 65 20 	mov    $0x206f7420656c6261,%rax
  402919:	74 6f 20 
  40291c:	48 ba 63 72 65 61 74 	mov    $0x7320657461657263,%rdx
  402923:	65 20 73 
  402926:	48 89 45 10          	mov    %rax,0x10(%rbp)
  40292a:	48 89 55 18          	mov    %rdx,0x18(%rbp)
  40292e:	c7 45 20 6f 63 6b 65 	movl   $0x656b636f,0x20(%rbp)
  402935:	66 c7 45 24 74 00    	movw   $0x74,0x24(%rbp)
  40293b:	b8 ff ff ff ff       	mov    $0xffffffff,%eax
  402940:	eb ad                	jmp    4028ef <init_driver+0xce>
  402942:	48 b8 45 72 72 6f 72 	mov    $0x44203a726f727245,%rax
  402949:	3a 20 44 
  40294c:	48 ba 4e 53 20 69 73 	mov    $0x6e7520736920534e,%rdx
  402953:	20 75 6e 
  402956:	48 89 45 00          	mov    %rax,0x0(%rbp)
  40295a:	48 89 55 08          	mov    %rdx,0x8(%rbp)
  40295e:	48 b8 61 62 6c 65 20 	mov    $0x206f7420656c6261,%rax
  402965:	74 6f 20 
  402968:	48 ba 72 65 73 6f 6c 	mov    $0x2065766c6f736572,%rdx
  40296f:	76 65 20 
  402972:	48 89 45 10          	mov    %rax,0x10(%rbp)
  402976:	48 89 55 18          	mov    %rdx,0x18(%rbp)
  40297a:	48 b8 73 65 72 76 65 	mov    $0x6120726576726573,%rax
  402981:	72 20 61 
  402984:	48 89 45 20          	mov    %rax,0x20(%rbp)
  402988:	c7 45 28 64 64 72 65 	movl   $0x65726464,0x28(%rbp)
  40298f:	66 c7 45 2c 73 73    	movw   $0x7373,0x2c(%rbp)
  402995:	c6 45 2e 00          	movb   $0x0,0x2e(%rbp)
  402999:	89 df                	mov    %ebx,%edi
  40299b:	e8 d0 e2 ff ff       	callq  400c70 <close@plt>
  4029a0:	b8 ff ff ff ff       	mov    $0xffffffff,%eax
  4029a5:	e9 45 ff ff ff       	jmpq   4028ef <init_driver+0xce>
  4029aa:	48 b8 45 72 72 6f 72 	mov    $0x55203a726f727245,%rax
  4029b1:	3a 20 55 
  4029b4:	48 ba 6e 61 62 6c 65 	mov    $0x6f7420656c62616e,%rdx
  4029bb:	20 74 6f 
  4029be:	48 89 45 00          	mov    %rax,0x0(%rbp)
  4029c2:	48 89 55 08          	mov    %rdx,0x8(%rbp)
  4029c6:	48 b8 20 63 6f 6e 6e 	mov    $0x7463656e6e6f6320,%rax
  4029cd:	65 63 74 
  4029d0:	48 ba 20 74 6f 20 73 	mov    $0x76726573206f7420,%rdx
  4029d7:	65 72 76 
  4029da:	48 89 45 10          	mov    %rax,0x10(%rbp)
  4029de:	48 89 55 18          	mov    %rdx,0x18(%rbp)
  4029e2:	66 c7 45 20 65 72    	movw   $0x7265,0x20(%rbp)
  4029e8:	c6 45 22 00          	movb   $0x0,0x22(%rbp)
  4029ec:	89 df                	mov    %ebx,%edi
  4029ee:	e8 7d e2 ff ff       	callq  400c70 <close@plt>
  4029f3:	b8 ff ff ff ff       	mov    $0xffffffff,%eax
  4029f8:	e9 f2 fe ff ff       	jmpq   4028ef <init_driver+0xce>

00000000004029fd <driver_post>:
  4029fd:	53                   	push   %rbx
  4029fe:	4c 89 cb             	mov    %r9,%rbx
  402a01:	45 85 c0             	test   %r8d,%r8d
  402a04:	75 18                	jne    402a1e <driver_post+0x21>
  402a06:	48 85 ff             	test   %rdi,%rdi
  402a09:	74 05                	je     402a10 <driver_post+0x13>
  402a0b:	80 3f 00             	cmpb   $0x0,(%rdi)
  402a0e:	75 30                	jne    402a40 <driver_post+0x43>
  402a10:	66 c7 03 4f 4b       	movw   $0x4b4f,(%rbx)
  402a15:	c6 43 02 00          	movb   $0x0,0x2(%rbx)
  402a19:	44 89 c0             	mov    %r8d,%eax
  402a1c:	5b                   	pop    %rbx
  402a1d:	c3                   	retq   
  402a1e:	48 89 ce             	mov    %rcx,%rsi
  402a21:	bf 05 33 40 00       	mov    $0x403305,%edi
  402a26:	b8 00 00 00 00       	mov    $0x0,%eax
  402a2b:	e8 10 e2 ff ff       	callq  400c40 <printf@plt>
  402a30:	66 c7 03 4f 4b       	movw   $0x4b4f,(%rbx)
  402a35:	c6 43 02 00          	movb   $0x0,0x2(%rbx)
  402a39:	b8 00 00 00 00       	mov    $0x0,%eax
  402a3e:	eb dc                	jmp    402a1c <driver_post+0x1f>
  402a40:	48 83 ec 08          	sub    $0x8,%rsp
  402a44:	41 51                	push   %r9
  402a46:	49 89 c9             	mov    %rcx,%r9
  402a49:	49 89 d0             	mov    %rdx,%r8
  402a4c:	48 89 f9             	mov    %rdi,%rcx
  402a4f:	48 89 f2             	mov    %rsi,%rdx
  402a52:	be 9a 3c 00 00       	mov    $0x3c9a,%esi
  402a57:	bf 4a 2e 40 00       	mov    $0x402e4a,%edi
  402a5c:	e8 36 f6 ff ff       	callq  402097 <submitr>
  402a61:	48 83 c4 10          	add    $0x10,%rsp
  402a65:	eb b5                	jmp    402a1c <driver_post+0x1f>

0000000000402a67 <check>:
  402a67:	89 f8                	mov    %edi,%eax
  402a69:	c1 e8 1c             	shr    $0x1c,%eax
  402a6c:	74 1d                	je     402a8b <check+0x24>
  402a6e:	b9 00 00 00 00       	mov    $0x0,%ecx
  402a73:	83 f9 1f             	cmp    $0x1f,%ecx
  402a76:	7f 0d                	jg     402a85 <check+0x1e>
  402a78:	89 f8                	mov    %edi,%eax
  402a7a:	d3 e8                	shr    %cl,%eax
  402a7c:	3c 0a                	cmp    $0xa,%al
  402a7e:	74 11                	je     402a91 <check+0x2a>
  402a80:	83 c1 08             	add    $0x8,%ecx
  402a83:	eb ee                	jmp    402a73 <check+0xc>
  402a85:	b8 01 00 00 00       	mov    $0x1,%eax
  402a8a:	c3                   	retq   
  402a8b:	b8 00 00 00 00       	mov    $0x0,%eax
  402a90:	c3                   	retq   
  402a91:	b8 00 00 00 00       	mov    $0x0,%eax
  402a96:	c3                   	retq   

0000000000402a97 <gencookie>:
  402a97:	53                   	push   %rbx
  402a98:	83 c7 01             	add    $0x1,%edi
  402a9b:	e8 40 e1 ff ff       	callq  400be0 <srandom@plt>
  402aa0:	e8 5b e2 ff ff       	callq  400d00 <random@plt>
  402aa5:	89 c3                	mov    %eax,%ebx
  402aa7:	89 c7                	mov    %eax,%edi
  402aa9:	e8 b9 ff ff ff       	callq  402a67 <check>
  402aae:	85 c0                	test   %eax,%eax
  402ab0:	74 ee                	je     402aa0 <gencookie+0x9>
  402ab2:	89 d8                	mov    %ebx,%eax
  402ab4:	5b                   	pop    %rbx
  402ab5:	c3                   	retq   
  402ab6:	66 2e 0f 1f 84 00 00 	nopw   %cs:0x0(%rax,%rax,1)
  402abd:	00 00 00 

0000000000402ac0 <__libc_csu_fini>:
  402ac0:	f3 c3                	repz retq 
  402ac2:	66 66 66 66 66 2e 0f 	data32 data32 data32 data32 nopw %cs:0x0(%rax,%rax,1)
  402ac9:	1f 84 00 00 00 00 00 

0000000000402ad0 <__libc_csu_init>:
  402ad0:	48 89 6c 24 d8       	mov    %rbp,-0x28(%rsp)
  402ad5:	4c 89 64 24 e0       	mov    %r12,-0x20(%rsp)
  402ada:	48 8d 2d 3f 13 20 00 	lea    0x20133f(%rip),%rbp        # 603e20 <__init_array_end>
  402ae1:	4c 8d 25 30 13 20 00 	lea    0x201330(%rip),%r12        # 603e18 <__frame_dummy_init_array_entry>
  402ae8:	4c 89 6c 24 e8       	mov    %r13,-0x18(%rsp)
  402aed:	4c 89 74 24 f0       	mov    %r14,-0x10(%rsp)
  402af2:	4c 89 7c 24 f8       	mov    %r15,-0x8(%rsp)
  402af7:	48 89 5c 24 d0       	mov    %rbx,-0x30(%rsp)
  402afc:	48 83 ec 38          	sub    $0x38,%rsp
  402b00:	4c 29 e5             	sub    %r12,%rbp
  402b03:	41 89 fd             	mov    %edi,%r13d
  402b06:	49 89 f6             	mov    %rsi,%r14
  402b09:	48 c1 fd 03          	sar    $0x3,%rbp
  402b0d:	49 89 d7             	mov    %rdx,%r15
  402b10:	e8 83 e0 ff ff       	callq  400b98 <_init>
  402b15:	48 85 ed             	test   %rbp,%rbp
  402b18:	74 1c                	je     402b36 <__libc_csu_init+0x66>
  402b1a:	31 db                	xor    %ebx,%ebx
  402b1c:	0f 1f 40 00          	nopl   0x0(%rax)
  402b20:	4c 89 fa             	mov    %r15,%rdx
  402b23:	4c 89 f6             	mov    %r14,%rsi
  402b26:	44 89 ef             	mov    %r13d,%edi
  402b29:	41 ff 14 dc          	callq  *(%r12,%rbx,8)
  402b2d:	48 83 c3 01          	add    $0x1,%rbx
  402b31:	48 39 eb             	cmp    %rbp,%rbx
  402b34:	72 ea                	jb     402b20 <__libc_csu_init+0x50>
  402b36:	48 8b 5c 24 08       	mov    0x8(%rsp),%rbx
  402b3b:	48 8b 6c 24 10       	mov    0x10(%rsp),%rbp
  402b40:	4c 8b 64 24 18       	mov    0x18(%rsp),%r12
  402b45:	4c 8b 6c 24 20       	mov    0x20(%rsp),%r13
  402b4a:	4c 8b 74 24 28       	mov    0x28(%rsp),%r14
  402b4f:	4c 8b 7c 24 30       	mov    0x30(%rsp),%r15
  402b54:	48 83 c4 38          	add    $0x38,%rsp
  402b58:	c3                   	retq   
  402b59:	0f 1f 00             	nopl   (%rax)

Disassembly of section .fini:

0000000000402b5c <_fini>:
  402b5c:	48 83 ec 08          	sub    $0x8,%rsp
  402b60:	48 83 c4 08          	add    $0x8,%rsp
  402b64:	c3                   	retq   
