
rtarget:     file format elf64-x86-64


Disassembly of section .init:

0000000000400b98 <_init>:
  400b98:	48 83 ec 08          	sub    $0x8,%rsp
  400b9c:	e8 5b 02 00 00       	callq  400dfc <call_gmon_start>
  400ba1:	48 83 c4 08          	add    $0x8,%rsp
  400ba5:	c3                   	retq   

Disassembly of section .plt:

0000000000400bb0 <strcasecmp@plt-0x10>:
  400bb0:	ff 35 52 44 20 00    	pushq  0x204452(%rip)        # 605008 <_GLOBAL_OFFSET_TABLE_+0x8>
  400bb6:	ff 25 54 44 20 00    	jmpq   *0x204454(%rip)        # 605010 <_GLOBAL_OFFSET_TABLE_+0x10>
  400bbc:	0f 1f 40 00          	nopl   0x0(%rax)

0000000000400bc0 <strcasecmp@plt>:
  400bc0:	ff 25 52 44 20 00    	jmpq   *0x204452(%rip)        # 605018 <_GLOBAL_OFFSET_TABLE_+0x18>
  400bc6:	68 00 00 00 00       	pushq  $0x0
  400bcb:	e9 e0 ff ff ff       	jmpq   400bb0 <_init+0x18>

0000000000400bd0 <__errno_location@plt>:
  400bd0:	ff 25 4a 44 20 00    	jmpq   *0x20444a(%rip)        # 605020 <_GLOBAL_OFFSET_TABLE_+0x20>
  400bd6:	68 01 00 00 00       	pushq  $0x1
  400bdb:	e9 d0 ff ff ff       	jmpq   400bb0 <_init+0x18>

0000000000400be0 <srandom@plt>:
  400be0:	ff 25 42 44 20 00    	jmpq   *0x204442(%rip)        # 605028 <_GLOBAL_OFFSET_TABLE_+0x28>
  400be6:	68 02 00 00 00       	pushq  $0x2
  400beb:	e9 c0 ff ff ff       	jmpq   400bb0 <_init+0x18>

0000000000400bf0 <strncmp@plt>:
  400bf0:	ff 25 3a 44 20 00    	jmpq   *0x20443a(%rip)        # 605030 <_GLOBAL_OFFSET_TABLE_+0x30>
  400bf6:	68 03 00 00 00       	pushq  $0x3
  400bfb:	e9 b0 ff ff ff       	jmpq   400bb0 <_init+0x18>

0000000000400c00 <strcpy@plt>:
  400c00:	ff 25 32 44 20 00    	jmpq   *0x204432(%rip)        # 605038 <_GLOBAL_OFFSET_TABLE_+0x38>
  400c06:	68 04 00 00 00       	pushq  $0x4
  400c0b:	e9 a0 ff ff ff       	jmpq   400bb0 <_init+0x18>

0000000000400c10 <puts@plt>:
  400c10:	ff 25 2a 44 20 00    	jmpq   *0x20442a(%rip)        # 605040 <_GLOBAL_OFFSET_TABLE_+0x40>
  400c16:	68 05 00 00 00       	pushq  $0x5
  400c1b:	e9 90 ff ff ff       	jmpq   400bb0 <_init+0x18>

0000000000400c20 <write@plt>:
  400c20:	ff 25 22 44 20 00    	jmpq   *0x204422(%rip)        # 605048 <_GLOBAL_OFFSET_TABLE_+0x48>
  400c26:	68 06 00 00 00       	pushq  $0x6
  400c2b:	e9 80 ff ff ff       	jmpq   400bb0 <_init+0x18>

0000000000400c30 <mmap@plt>:
  400c30:	ff 25 1a 44 20 00    	jmpq   *0x20441a(%rip)        # 605050 <_GLOBAL_OFFSET_TABLE_+0x50>
  400c36:	68 07 00 00 00       	pushq  $0x7
  400c3b:	e9 70 ff ff ff       	jmpq   400bb0 <_init+0x18>

0000000000400c40 <printf@plt>:
  400c40:	ff 25 12 44 20 00    	jmpq   *0x204412(%rip)        # 605058 <_GLOBAL_OFFSET_TABLE_+0x58>
  400c46:	68 08 00 00 00       	pushq  $0x8
  400c4b:	e9 60 ff ff ff       	jmpq   400bb0 <_init+0x18>

0000000000400c50 <memset@plt>:
  400c50:	ff 25 0a 44 20 00    	jmpq   *0x20440a(%rip)        # 605060 <_GLOBAL_OFFSET_TABLE_+0x60>
  400c56:	68 09 00 00 00       	pushq  $0x9
  400c5b:	e9 50 ff ff ff       	jmpq   400bb0 <_init+0x18>

0000000000400c60 <alarm@plt>:
  400c60:	ff 25 02 44 20 00    	jmpq   *0x204402(%rip)        # 605068 <_GLOBAL_OFFSET_TABLE_+0x68>
  400c66:	68 0a 00 00 00       	pushq  $0xa
  400c6b:	e9 40 ff ff ff       	jmpq   400bb0 <_init+0x18>

0000000000400c70 <close@plt>:
  400c70:	ff 25 fa 43 20 00    	jmpq   *0x2043fa(%rip)        # 605070 <_GLOBAL_OFFSET_TABLE_+0x70>
  400c76:	68 0b 00 00 00       	pushq  $0xb
  400c7b:	e9 30 ff ff ff       	jmpq   400bb0 <_init+0x18>

0000000000400c80 <read@plt>:
  400c80:	ff 25 f2 43 20 00    	jmpq   *0x2043f2(%rip)        # 605078 <_GLOBAL_OFFSET_TABLE_+0x78>
  400c86:	68 0c 00 00 00       	pushq  $0xc
  400c8b:	e9 20 ff ff ff       	jmpq   400bb0 <_init+0x18>

0000000000400c90 <__libc_start_main@plt>:
  400c90:	ff 25 ea 43 20 00    	jmpq   *0x2043ea(%rip)        # 605080 <_GLOBAL_OFFSET_TABLE_+0x80>
  400c96:	68 0d 00 00 00       	pushq  $0xd
  400c9b:	e9 10 ff ff ff       	jmpq   400bb0 <_init+0x18>

0000000000400ca0 <memcpy@plt>:
  400ca0:	ff 25 e2 43 20 00    	jmpq   *0x2043e2(%rip)        # 605088 <_GLOBAL_OFFSET_TABLE_+0x88>
  400ca6:	68 0e 00 00 00       	pushq  $0xe
  400cab:	e9 00 ff ff ff       	jmpq   400bb0 <_init+0x18>

0000000000400cb0 <signal@plt>:
  400cb0:	ff 25 da 43 20 00    	jmpq   *0x2043da(%rip)        # 605090 <_GLOBAL_OFFSET_TABLE_+0x90>
  400cb6:	68 0f 00 00 00       	pushq  $0xf
  400cbb:	e9 f0 fe ff ff       	jmpq   400bb0 <_init+0x18>

0000000000400cc0 <gethostbyname@plt>:
  400cc0:	ff 25 d2 43 20 00    	jmpq   *0x2043d2(%rip)        # 605098 <_GLOBAL_OFFSET_TABLE_+0x98>
  400cc6:	68 10 00 00 00       	pushq  $0x10
  400ccb:	e9 e0 fe ff ff       	jmpq   400bb0 <_init+0x18>

0000000000400cd0 <fprintf@plt>:
  400cd0:	ff 25 ca 43 20 00    	jmpq   *0x2043ca(%rip)        # 6050a0 <_GLOBAL_OFFSET_TABLE_+0xa0>
  400cd6:	68 11 00 00 00       	pushq  $0x11
  400cdb:	e9 d0 fe ff ff       	jmpq   400bb0 <_init+0x18>

0000000000400ce0 <strtol@plt>:
  400ce0:	ff 25 c2 43 20 00    	jmpq   *0x2043c2(%rip)        # 6050a8 <_GLOBAL_OFFSET_TABLE_+0xa8>
  400ce6:	68 12 00 00 00       	pushq  $0x12
  400ceb:	e9 c0 fe ff ff       	jmpq   400bb0 <_init+0x18>

0000000000400cf0 <time@plt>:
  400cf0:	ff 25 ba 43 20 00    	jmpq   *0x2043ba(%rip)        # 6050b0 <_GLOBAL_OFFSET_TABLE_+0xb0>
  400cf6:	68 13 00 00 00       	pushq  $0x13
  400cfb:	e9 b0 fe ff ff       	jmpq   400bb0 <_init+0x18>

0000000000400d00 <random@plt>:
  400d00:	ff 25 b2 43 20 00    	jmpq   *0x2043b2(%rip)        # 6050b8 <_GLOBAL_OFFSET_TABLE_+0xb8>
  400d06:	68 14 00 00 00       	pushq  $0x14
  400d0b:	e9 a0 fe ff ff       	jmpq   400bb0 <_init+0x18>

0000000000400d10 <_IO_getc@plt>:
  400d10:	ff 25 aa 43 20 00    	jmpq   *0x2043aa(%rip)        # 6050c0 <_GLOBAL_OFFSET_TABLE_+0xc0>
  400d16:	68 15 00 00 00       	pushq  $0x15
  400d1b:	e9 90 fe ff ff       	jmpq   400bb0 <_init+0x18>

0000000000400d20 <__isoc99_sscanf@plt>:
  400d20:	ff 25 a2 43 20 00    	jmpq   *0x2043a2(%rip)        # 6050c8 <_GLOBAL_OFFSET_TABLE_+0xc8>
  400d26:	68 16 00 00 00       	pushq  $0x16
  400d2b:	e9 80 fe ff ff       	jmpq   400bb0 <_init+0x18>

0000000000400d30 <munmap@plt>:
  400d30:	ff 25 9a 43 20 00    	jmpq   *0x20439a(%rip)        # 6050d0 <_GLOBAL_OFFSET_TABLE_+0xd0>
  400d36:	68 17 00 00 00       	pushq  $0x17
  400d3b:	e9 70 fe ff ff       	jmpq   400bb0 <_init+0x18>

0000000000400d40 <memmove@plt>:
  400d40:	ff 25 92 43 20 00    	jmpq   *0x204392(%rip)        # 6050d8 <_GLOBAL_OFFSET_TABLE_+0xd8>
  400d46:	68 18 00 00 00       	pushq  $0x18
  400d4b:	e9 60 fe ff ff       	jmpq   400bb0 <_init+0x18>

0000000000400d50 <fopen@plt>:
  400d50:	ff 25 8a 43 20 00    	jmpq   *0x20438a(%rip)        # 6050e0 <_GLOBAL_OFFSET_TABLE_+0xe0>
  400d56:	68 19 00 00 00       	pushq  $0x19
  400d5b:	e9 50 fe ff ff       	jmpq   400bb0 <_init+0x18>

0000000000400d60 <getopt@plt>:
  400d60:	ff 25 82 43 20 00    	jmpq   *0x204382(%rip)        # 6050e8 <_GLOBAL_OFFSET_TABLE_+0xe8>
  400d66:	68 1a 00 00 00       	pushq  $0x1a
  400d6b:	e9 40 fe ff ff       	jmpq   400bb0 <_init+0x18>

0000000000400d70 <strtoul@plt>:
  400d70:	ff 25 7a 43 20 00    	jmpq   *0x20437a(%rip)        # 6050f0 <_GLOBAL_OFFSET_TABLE_+0xf0>
  400d76:	68 1b 00 00 00       	pushq  $0x1b
  400d7b:	e9 30 fe ff ff       	jmpq   400bb0 <_init+0x18>

0000000000400d80 <gethostname@plt>:
  400d80:	ff 25 72 43 20 00    	jmpq   *0x204372(%rip)        # 6050f8 <_GLOBAL_OFFSET_TABLE_+0xf8>
  400d86:	68 1c 00 00 00       	pushq  $0x1c
  400d8b:	e9 20 fe ff ff       	jmpq   400bb0 <_init+0x18>

0000000000400d90 <sprintf@plt>:
  400d90:	ff 25 6a 43 20 00    	jmpq   *0x20436a(%rip)        # 605100 <_GLOBAL_OFFSET_TABLE_+0x100>
  400d96:	68 1d 00 00 00       	pushq  $0x1d
  400d9b:	e9 10 fe ff ff       	jmpq   400bb0 <_init+0x18>

0000000000400da0 <exit@plt>:
  400da0:	ff 25 62 43 20 00    	jmpq   *0x204362(%rip)        # 605108 <_GLOBAL_OFFSET_TABLE_+0x108>
  400da6:	68 1e 00 00 00       	pushq  $0x1e
  400dab:	e9 00 fe ff ff       	jmpq   400bb0 <_init+0x18>

0000000000400db0 <connect@plt>:
  400db0:	ff 25 5a 43 20 00    	jmpq   *0x20435a(%rip)        # 605110 <_GLOBAL_OFFSET_TABLE_+0x110>
  400db6:	68 1f 00 00 00       	pushq  $0x1f
  400dbb:	e9 f0 fd ff ff       	jmpq   400bb0 <_init+0x18>

0000000000400dc0 <socket@plt>:
  400dc0:	ff 25 52 43 20 00    	jmpq   *0x204352(%rip)        # 605118 <_GLOBAL_OFFSET_TABLE_+0x118>
  400dc6:	68 20 00 00 00       	pushq  $0x20
  400dcb:	e9 e0 fd ff ff       	jmpq   400bb0 <_init+0x18>

Disassembly of section .text:

0000000000400dd0 <_start>:
  400dd0:	31 ed                	xor    %ebp,%ebp
  400dd2:	49 89 d1             	mov    %rdx,%r9
  400dd5:	5e                   	pop    %rsi
  400dd6:	48 89 e2             	mov    %rsp,%rdx
  400dd9:	48 83 e4 f0          	and    $0xfffffffffffffff0,%rsp
  400ddd:	50                   	push   %rax
  400dde:	54                   	push   %rsp
  400ddf:	49 c7 c0 e0 2b 40 00 	mov    $0x402be0,%r8
  400de6:	48 c7 c1 f0 2b 40 00 	mov    $0x402bf0,%rcx
  400ded:	48 c7 c7 60 10 40 00 	mov    $0x401060,%rdi
  400df4:	e8 97 fe ff ff       	callq  400c90 <__libc_start_main@plt>
  400df9:	f4                   	hlt    
  400dfa:	90                   	nop
  400dfb:	90                   	nop

0000000000400dfc <call_gmon_start>:
  400dfc:	48 83 ec 08          	sub    $0x8,%rsp
  400e00:	48 8b 05 f1 41 20 00 	mov    0x2041f1(%rip),%rax        # 604ff8 <_DYNAMIC+0x1d0>
  400e07:	48 85 c0             	test   %rax,%rax
  400e0a:	74 02                	je     400e0e <call_gmon_start+0x12>
  400e0c:	ff d0                	callq  *%rax
  400e0e:	48 83 c4 08          	add    $0x8,%rsp
  400e12:	c3                   	retq   
  400e13:	66 2e 0f 1f 84 00 00 	nopw   %cs:0x0(%rax,%rax,1)
  400e1a:	00 00 00 
  400e1d:	0f 1f 00             	nopl   (%rax)

0000000000400e20 <deregister_tm_clones>:
  400e20:	b8 90 54 60 00       	mov    $0x605490,%eax
  400e25:	48 3d 90 54 60 00    	cmp    $0x605490,%rax
  400e2b:	74 13                	je     400e40 <deregister_tm_clones+0x20>
  400e2d:	b8 00 00 00 00       	mov    $0x0,%eax
  400e32:	48 85 c0             	test   %rax,%rax
  400e35:	74 09                	je     400e40 <deregister_tm_clones+0x20>
  400e37:	bf 90 54 60 00       	mov    $0x605490,%edi
  400e3c:	ff e0                	jmpq   *%rax
  400e3e:	66 90                	xchg   %ax,%ax
  400e40:	c3                   	retq   
  400e41:	0f 1f 44 00 00       	nopl   0x0(%rax,%rax,1)
  400e46:	66 2e 0f 1f 84 00 00 	nopw   %cs:0x0(%rax,%rax,1)
  400e4d:	00 00 00 

0000000000400e50 <register_tm_clones>:
  400e50:	be 90 54 60 00       	mov    $0x605490,%esi
  400e55:	48 81 ee 90 54 60 00 	sub    $0x605490,%rsi
  400e5c:	48 c1 fe 03          	sar    $0x3,%rsi
  400e60:	48 89 f0             	mov    %rsi,%rax
  400e63:	48 c1 e8 3f          	shr    $0x3f,%rax
  400e67:	48 01 c6             	add    %rax,%rsi
  400e6a:	48 d1 fe             	sar    %rsi
  400e6d:	74 11                	je     400e80 <register_tm_clones+0x30>
  400e6f:	b8 00 00 00 00       	mov    $0x0,%eax
  400e74:	48 85 c0             	test   %rax,%rax
  400e77:	74 07                	je     400e80 <register_tm_clones+0x30>
  400e79:	bf 90 54 60 00       	mov    $0x605490,%edi
  400e7e:	ff e0                	jmpq   *%rax
  400e80:	c3                   	retq   
  400e81:	0f 1f 44 00 00       	nopl   0x0(%rax,%rax,1)
  400e86:	66 2e 0f 1f 84 00 00 	nopw   %cs:0x0(%rax,%rax,1)
  400e8d:	00 00 00 

0000000000400e90 <__do_global_dtors_aux>:
  400e90:	80 3d 39 46 20 00 00 	cmpb   $0x0,0x204639(%rip)        # 6054d0 <completed.7182>
  400e97:	75 17                	jne    400eb0 <__do_global_dtors_aux+0x20>
  400e99:	55                   	push   %rbp
  400e9a:	48 89 e5             	mov    %rsp,%rbp
  400e9d:	e8 7e ff ff ff       	callq  400e20 <deregister_tm_clones>
  400ea2:	c6 05 27 46 20 00 01 	movb   $0x1,0x204627(%rip)        # 6054d0 <completed.7182>
  400ea9:	5d                   	pop    %rbp
  400eaa:	c3                   	retq   
  400eab:	0f 1f 44 00 00       	nopl   0x0(%rax,%rax,1)
  400eb0:	c3                   	retq   
  400eb1:	0f 1f 44 00 00       	nopl   0x0(%rax,%rax,1)
  400eb6:	66 2e 0f 1f 84 00 00 	nopw   %cs:0x0(%rax,%rax,1)
  400ebd:	00 00 00 

0000000000400ec0 <frame_dummy>:
  400ec0:	eb 8e                	jmp    400e50 <register_tm_clones>

0000000000400ec2 <usage>:
  400ec2:	48 83 ec 08          	sub    $0x8,%rsp
  400ec6:	48 89 fe             	mov    %rdi,%rsi
  400ec9:	83 3d 38 46 20 00 00 	cmpl   $0x0,0x204638(%rip)        # 605508 <is_checker>
  400ed0:	74 41                	je     400f13 <usage+0x51>
  400ed2:	bf a0 2c 40 00       	mov    $0x402ca0,%edi
  400ed7:	b8 00 00 00 00       	mov    $0x0,%eax
  400edc:	e8 5f fd ff ff       	callq  400c40 <printf@plt>
  400ee1:	bf d8 2c 40 00       	mov    $0x402cd8,%edi
  400ee6:	e8 25 fd ff ff       	callq  400c10 <puts@plt>
  400eeb:	bf 10 2e 40 00       	mov    $0x402e10,%edi
  400ef0:	e8 1b fd ff ff       	callq  400c10 <puts@plt>
  400ef5:	bf 00 2d 40 00       	mov    $0x402d00,%edi
  400efa:	e8 11 fd ff ff       	callq  400c10 <puts@plt>
  400eff:	bf 2a 2e 40 00       	mov    $0x402e2a,%edi
  400f04:	e8 07 fd ff ff       	callq  400c10 <puts@plt>
  400f09:	bf 00 00 00 00       	mov    $0x0,%edi
  400f0e:	e8 8d fe ff ff       	callq  400da0 <exit@plt>
  400f13:	bf 46 2e 40 00       	mov    $0x402e46,%edi
  400f18:	b8 00 00 00 00       	mov    $0x0,%eax
  400f1d:	e8 1e fd ff ff       	callq  400c40 <printf@plt>
  400f22:	bf 28 2d 40 00       	mov    $0x402d28,%edi
  400f27:	e8 e4 fc ff ff       	callq  400c10 <puts@plt>
  400f2c:	bf 50 2d 40 00       	mov    $0x402d50,%edi
  400f31:	e8 da fc ff ff       	callq  400c10 <puts@plt>
  400f36:	bf 64 2e 40 00       	mov    $0x402e64,%edi
  400f3b:	e8 d0 fc ff ff       	callq  400c10 <puts@plt>
  400f40:	eb c7                	jmp    400f09 <usage+0x47>

0000000000400f42 <initialize_target>:
  400f42:	55                   	push   %rbp
  400f43:	53                   	push   %rbx
  400f44:	48 81 ec 08 21 00 00 	sub    $0x2108,%rsp
  400f4b:	89 f5                	mov    %esi,%ebp
  400f4d:	89 3d a5 45 20 00    	mov    %edi,0x2045a5(%rip)        # 6054f8 <check_level>
  400f53:	8b 3d ef 41 20 00    	mov    0x2041ef(%rip),%edi        # 605148 <target_id>
  400f59:	e8 5e 1c 00 00       	callq  402bbc <gencookie>
  400f5e:	89 05 a0 45 20 00    	mov    %eax,0x2045a0(%rip)        # 605504 <cookie>
  400f64:	89 c7                	mov    %eax,%edi
  400f66:	e8 51 1c 00 00       	callq  402bbc <gencookie>
  400f6b:	89 05 8f 45 20 00    	mov    %eax,0x20458f(%rip)        # 605500 <authkey>
  400f71:	8b 05 d1 41 20 00    	mov    0x2041d1(%rip),%eax        # 605148 <target_id>
  400f77:	8d 78 01             	lea    0x1(%rax),%edi
  400f7a:	e8 61 fc ff ff       	callq  400be0 <srandom@plt>
  400f7f:	e8 7c fd ff ff       	callq  400d00 <random@plt>
  400f84:	89 c7                	mov    %eax,%edi
  400f86:	e8 8d 02 00 00       	callq  401218 <scramble>
  400f8b:	89 c3                	mov    %eax,%ebx
  400f8d:	85 ed                	test   %ebp,%ebp
  400f8f:	75 3d                	jne    400fce <initialize_target+0x8c>
  400f91:	b8 00 00 00 00       	mov    $0x0,%eax
  400f96:	01 d8                	add    %ebx,%eax
  400f98:	0f b7 c0             	movzwl %ax,%eax
  400f9b:	8d 04 c5 00 01 00 00 	lea    0x100(,%rax,8),%eax
  400fa2:	89 c0                	mov    %eax,%eax
  400fa4:	48 89 05 d5 44 20 00 	mov    %rax,0x2044d5(%rip)        # 605480 <buf_offset>
  400fab:	c6 05 76 51 20 00 72 	movb   $0x72,0x205176(%rip)        # 606128 <target_prefix>
  400fb2:	83 3d cf 44 20 00 00 	cmpl   $0x0,0x2044cf(%rip)        # 605488 <notify>
  400fb9:	74 09                	je     400fc4 <initialize_target+0x82>
  400fbb:	83 3d 46 45 20 00 00 	cmpl   $0x0,0x204546(%rip)        # 605508 <is_checker>
  400fc2:	74 22                	je     400fe6 <initialize_target+0xa4>
  400fc4:	48 81 c4 08 21 00 00 	add    $0x2108,%rsp
  400fcb:	5b                   	pop    %rbx
  400fcc:	5d                   	pop    %rbp
  400fcd:	c3                   	retq   
  400fce:	bf 00 00 00 00       	mov    $0x0,%edi
  400fd3:	e8 18 fd ff ff       	callq  400cf0 <time@plt>
  400fd8:	89 c7                	mov    %eax,%edi
  400fda:	e8 01 fc ff ff       	callq  400be0 <srandom@plt>
  400fdf:	e8 1c fd ff ff       	callq  400d00 <random@plt>
  400fe4:	eb b0                	jmp    400f96 <initialize_target+0x54>
  400fe6:	be 00 01 00 00       	mov    $0x100,%esi
  400feb:	48 89 e7             	mov    %rsp,%rdi
  400fee:	e8 8d fd ff ff       	callq  400d80 <gethostname@plt>
  400ff3:	89 c3                	mov    %eax,%ebx
  400ff5:	85 c0                	test   %eax,%eax
  400ff7:	75 21                	jne    40101a <initialize_target+0xd8>
  400ff9:	48 63 c3             	movslq %ebx,%rax
  400ffc:	48 8b 3c c5 60 51 60 	mov    0x605160(,%rax,8),%rdi
  401003:	00 
  401004:	48 85 ff             	test   %rdi,%rdi
  401007:	74 25                	je     40102e <initialize_target+0xec>
  401009:	48 89 e6             	mov    %rsp,%rsi
  40100c:	e8 af fb ff ff       	callq  400bc0 <strcasecmp@plt>
  401011:	85 c0                	test   %eax,%eax
  401013:	74 19                	je     40102e <initialize_target+0xec>
  401015:	83 c3 01             	add    $0x1,%ebx
  401018:	eb df                	jmp    400ff9 <initialize_target+0xb7>
  40101a:	bf 80 2d 40 00       	mov    $0x402d80,%edi
  40101f:	e8 ec fb ff ff       	callq  400c10 <puts@plt>
  401024:	bf 08 00 00 00       	mov    $0x8,%edi
  401029:	e8 72 fd ff ff       	callq  400da0 <exit@plt>
  40102e:	48 8d bc 24 00 01 00 	lea    0x100(%rsp),%rdi
  401035:	00 
  401036:	e8 0b 19 00 00       	callq  402946 <init_driver>
  40103b:	85 c0                	test   %eax,%eax
  40103d:	79 85                	jns    400fc4 <initialize_target+0x82>
  40103f:	48 8d b4 24 00 01 00 	lea    0x100(%rsp),%rsi
  401046:	00 
  401047:	bf b8 2d 40 00       	mov    $0x402db8,%edi
  40104c:	b8 00 00 00 00       	mov    $0x0,%eax
  401051:	e8 ea fb ff ff       	callq  400c40 <printf@plt>
  401056:	bf 08 00 00 00       	mov    $0x8,%edi
  40105b:	e8 40 fd ff ff       	callq  400da0 <exit@plt>

0000000000401060 <main>:
  401060:	41 56                	push   %r14
  401062:	41 55                	push   %r13
  401064:	41 54                	push   %r12
  401066:	55                   	push   %rbp
  401067:	53                   	push   %rbx
  401068:	89 fd                	mov    %edi,%ebp
  40106a:	48 89 f3             	mov    %rsi,%rbx
  40106d:	be 27 1d 40 00       	mov    $0x401d27,%esi
  401072:	bf 0b 00 00 00       	mov    $0xb,%edi
  401077:	e8 34 fc ff ff       	callq  400cb0 <signal@plt>
  40107c:	be d9 1c 40 00       	mov    $0x401cd9,%esi
  401081:	bf 07 00 00 00       	mov    $0x7,%edi
  401086:	e8 25 fc ff ff       	callq  400cb0 <signal@plt>
  40108b:	be 75 1d 40 00       	mov    $0x401d75,%esi
  401090:	bf 04 00 00 00       	mov    $0x4,%edi
  401095:	e8 16 fc ff ff       	callq  400cb0 <signal@plt>
  40109a:	83 3d 67 44 20 00 00 	cmpl   $0x0,0x204467(%rip)        # 605508 <is_checker>
  4010a1:	75 25                	jne    4010c8 <main+0x68>
  4010a3:	41 bc 85 2e 40 00    	mov    $0x402e85,%r12d
  4010a9:	48 8b 05 f0 43 20 00 	mov    0x2043f0(%rip),%rax        # 6054a0 <stdin@@GLIBC_2.2.5>
  4010b0:	48 89 05 39 44 20 00 	mov    %rax,0x204439(%rip)        # 6054f0 <infile>
  4010b7:	41 bd 00 00 00 00    	mov    $0x0,%r13d
  4010bd:	41 be 00 00 00 00    	mov    $0x0,%r14d
  4010c3:	e9 81 00 00 00       	jmpq   401149 <main+0xe9>
  4010c8:	be c3 1d 40 00       	mov    $0x401dc3,%esi
  4010cd:	bf 0e 00 00 00       	mov    $0xe,%edi
  4010d2:	e8 d9 fb ff ff       	callq  400cb0 <signal@plt>
  4010d7:	bf 05 00 00 00       	mov    $0x5,%edi
  4010dc:	e8 7f fb ff ff       	callq  400c60 <alarm@plt>
  4010e1:	41 bc 7d 2e 40 00    	mov    $0x402e7d,%r12d
  4010e7:	eb c0                	jmp    4010a9 <main+0x49>
  4010e9:	48 8b 3b             	mov    (%rbx),%rdi
  4010ec:	e8 d1 fd ff ff       	callq  400ec2 <usage>
  4010f1:	be 25 31 40 00       	mov    $0x403125,%esi
  4010f6:	48 8b 3d c3 43 20 00 	mov    0x2043c3(%rip),%rdi        # 6054c0 <optarg@@GLIBC_2.2.5>
  4010fd:	e8 4e fc ff ff       	callq  400d50 <fopen@plt>
  401102:	48 89 05 e7 43 20 00 	mov    %rax,0x2043e7(%rip)        # 6054f0 <infile>
  401109:	48 85 c0             	test   %rax,%rax
  40110c:	75 3b                	jne    401149 <main+0xe9>
  40110e:	48 8b 15 ab 43 20 00 	mov    0x2043ab(%rip),%rdx        # 6054c0 <optarg@@GLIBC_2.2.5>
  401115:	be 8a 2e 40 00       	mov    $0x402e8a,%esi
  40111a:	48 8b 3d a7 43 20 00 	mov    0x2043a7(%rip),%rdi        # 6054c8 <stderr@@GLIBC_2.2.5>
  401121:	e8 aa fb ff ff       	callq  400cd0 <fprintf@plt>
  401126:	b8 01 00 00 00       	mov    $0x1,%eax
  40112b:	e9 c1 00 00 00       	jmpq   4011f1 <main+0x191>
  401130:	ba 10 00 00 00       	mov    $0x10,%edx
  401135:	be 00 00 00 00       	mov    $0x0,%esi
  40113a:	48 8b 3d 7f 43 20 00 	mov    0x20437f(%rip),%rdi        # 6054c0 <optarg@@GLIBC_2.2.5>
  401141:	e8 2a fc ff ff       	callq  400d70 <strtoul@plt>
  401146:	41 89 c6             	mov    %eax,%r14d
  401149:	4c 89 e2             	mov    %r12,%rdx
  40114c:	48 89 de             	mov    %rbx,%rsi
  40114f:	89 ef                	mov    %ebp,%edi
  401151:	e8 0a fc ff ff       	callq  400d60 <getopt@plt>
  401156:	3c ff                	cmp    $0xff,%al
  401158:	74 52                	je     4011ac <main+0x14c>
  40115a:	0f be f0             	movsbl %al,%esi
  40115d:	83 e8 61             	sub    $0x61,%eax
  401160:	3c 10                	cmp    $0x10,%al
  401162:	77 31                	ja     401195 <main+0x135>
  401164:	0f b6 c0             	movzbl %al,%eax
  401167:	ff 24 c5 c8 2e 40 00 	jmpq   *0x402ec8(,%rax,8)
  40116e:	ba 0a 00 00 00       	mov    $0xa,%edx
  401173:	be 00 00 00 00       	mov    $0x0,%esi
  401178:	48 8b 3d 41 43 20 00 	mov    0x204341(%rip),%rdi        # 6054c0 <optarg@@GLIBC_2.2.5>
  40117f:	e8 5c fb ff ff       	callq  400ce0 <strtol@plt>
  401184:	41 89 c5             	mov    %eax,%r13d
  401187:	eb c0                	jmp    401149 <main+0xe9>
  401189:	c7 05 f5 42 20 00 00 	movl   $0x0,0x2042f5(%rip)        # 605488 <notify>
  401190:	00 00 00 
  401193:	eb b4                	jmp    401149 <main+0xe9>
  401195:	bf a7 2e 40 00       	mov    $0x402ea7,%edi
  40119a:	b8 00 00 00 00       	mov    $0x0,%eax
  40119f:	e8 9c fa ff ff       	callq  400c40 <printf@plt>
  4011a4:	48 8b 3b             	mov    (%rbx),%rdi
  4011a7:	e8 16 fd ff ff       	callq  400ec2 <usage>
  4011ac:	be 01 00 00 00       	mov    $0x1,%esi
  4011b1:	44 89 ef             	mov    %r13d,%edi
  4011b4:	e8 89 fd ff ff       	callq  400f42 <initialize_target>
  4011b9:	83 3d 48 43 20 00 00 	cmpl   $0x0,0x204348(%rip)        # 605508 <is_checker>
  4011c0:	74 09                	je     4011cb <main+0x16b>
  4011c2:	44 39 35 37 43 20 00 	cmp    %r14d,0x204337(%rip)        # 605500 <authkey>
  4011c9:	75 2f                	jne    4011fa <main+0x19a>
  4011cb:	8b 35 33 43 20 00    	mov    0x204333(%rip),%esi        # 605504 <cookie>
  4011d1:	bf ba 2e 40 00       	mov    $0x402eba,%edi
  4011d6:	b8 00 00 00 00       	mov    $0x0,%eax
  4011db:	e8 60 fa ff ff       	callq  400c40 <printf@plt>
  4011e0:	48 8b 3d 99 42 20 00 	mov    0x204299(%rip),%rdi        # 605480 <buf_offset>
  4011e7:	e8 25 0c 00 00       	callq  401e11 <launch>
  4011ec:	b8 00 00 00 00       	mov    $0x0,%eax
  4011f1:	5b                   	pop    %rbx
  4011f2:	5d                   	pop    %rbp
  4011f3:	41 5c                	pop    %r12
  4011f5:	41 5d                	pop    %r13
  4011f7:	41 5e                	pop    %r14
  4011f9:	c3                   	retq   
  4011fa:	44 89 f6             	mov    %r14d,%esi
  4011fd:	bf e0 2d 40 00       	mov    $0x402de0,%edi
  401202:	b8 00 00 00 00       	mov    $0x0,%eax
  401207:	e8 34 fa ff ff       	callq  400c40 <printf@plt>
  40120c:	b8 00 00 00 00       	mov    $0x0,%eax
  401211:	e8 c7 07 00 00       	callq  4019dd <check_fail>
  401216:	eb b3                	jmp    4011cb <main+0x16b>

0000000000401218 <scramble>:
  401218:	b8 00 00 00 00       	mov    $0x0,%eax
  40121d:	83 f8 09             	cmp    $0x9,%eax
  401220:	77 13                	ja     401235 <scramble+0x1d>
  401222:	69 d0 be 1c 00 00    	imul   $0x1cbe,%eax,%edx
  401228:	01 fa                	add    %edi,%edx
  40122a:	89 c1                	mov    %eax,%ecx
  40122c:	89 54 8c d0          	mov    %edx,-0x30(%rsp,%rcx,4)
  401230:	83 c0 01             	add    $0x1,%eax
  401233:	eb e8                	jmp    40121d <scramble+0x5>
  401235:	8b 44 24 ec          	mov    -0x14(%rsp),%eax
  401239:	69 c0 73 71 00 00    	imul   $0x7173,%eax,%eax
  40123f:	89 44 24 ec          	mov    %eax,-0x14(%rsp)
  401243:	8b 44 24 e0          	mov    -0x20(%rsp),%eax
  401247:	69 c0 16 2a 00 00    	imul   $0x2a16,%eax,%eax
  40124d:	89 44 24 e0          	mov    %eax,-0x20(%rsp)
  401251:	8b 44 24 e0          	mov    -0x20(%rsp),%eax
  401255:	69 c0 e0 80 00 00    	imul   $0x80e0,%eax,%eax
  40125b:	89 44 24 e0          	mov    %eax,-0x20(%rsp)
  40125f:	8b 44 24 d4          	mov    -0x2c(%rsp),%eax
  401263:	69 c0 56 64 00 00    	imul   $0x6456,%eax,%eax
  401269:	89 44 24 d4          	mov    %eax,-0x2c(%rsp)
  40126d:	8b 44 24 d0          	mov    -0x30(%rsp),%eax
  401271:	69 c0 89 77 00 00    	imul   $0x7789,%eax,%eax
  401277:	89 44 24 d0          	mov    %eax,-0x30(%rsp)
  40127b:	8b 44 24 f0          	mov    -0x10(%rsp),%eax
  40127f:	69 c0 0b 2f 00 00    	imul   $0x2f0b,%eax,%eax
  401285:	89 44 24 f0          	mov    %eax,-0x10(%rsp)
  401289:	8b 44 24 d4          	mov    -0x2c(%rsp),%eax
  40128d:	69 c0 10 f9 00 00    	imul   $0xf910,%eax,%eax
  401293:	89 44 24 d4          	mov    %eax,-0x2c(%rsp)
  401297:	8b 44 24 e4          	mov    -0x1c(%rsp),%eax
  40129b:	69 c0 58 cb 00 00    	imul   $0xcb58,%eax,%eax
  4012a1:	89 44 24 e4          	mov    %eax,-0x1c(%rsp)
  4012a5:	8b 44 24 dc          	mov    -0x24(%rsp),%eax
  4012a9:	69 c0 4f 02 00 00    	imul   $0x24f,%eax,%eax
  4012af:	89 44 24 dc          	mov    %eax,-0x24(%rsp)
  4012b3:	8b 44 24 f4          	mov    -0xc(%rsp),%eax
  4012b7:	69 c0 17 39 00 00    	imul   $0x3917,%eax,%eax
  4012bd:	89 44 24 f4          	mov    %eax,-0xc(%rsp)
  4012c1:	8b 44 24 d0          	mov    -0x30(%rsp),%eax
  4012c5:	69 c0 d0 da 00 00    	imul   $0xdad0,%eax,%eax
  4012cb:	89 44 24 d0          	mov    %eax,-0x30(%rsp)
  4012cf:	8b 44 24 dc          	mov    -0x24(%rsp),%eax
  4012d3:	69 c0 ef a9 00 00    	imul   $0xa9ef,%eax,%eax
  4012d9:	89 44 24 dc          	mov    %eax,-0x24(%rsp)
  4012dd:	8b 44 24 dc          	mov    -0x24(%rsp),%eax
  4012e1:	69 c0 78 ad 00 00    	imul   $0xad78,%eax,%eax
  4012e7:	89 44 24 dc          	mov    %eax,-0x24(%rsp)
  4012eb:	8b 44 24 d8          	mov    -0x28(%rsp),%eax
  4012ef:	69 c0 91 ed 00 00    	imul   $0xed91,%eax,%eax
  4012f5:	89 44 24 d8          	mov    %eax,-0x28(%rsp)
  4012f9:	8b 44 24 d0          	mov    -0x30(%rsp),%eax
  4012fd:	69 c0 13 12 00 00    	imul   $0x1213,%eax,%eax
  401303:	89 44 24 d0          	mov    %eax,-0x30(%rsp)
  401307:	8b 44 24 e0          	mov    -0x20(%rsp),%eax
  40130b:	69 c0 a8 d1 00 00    	imul   $0xd1a8,%eax,%eax
  401311:	89 44 24 e0          	mov    %eax,-0x20(%rsp)
  401315:	8b 44 24 d0          	mov    -0x30(%rsp),%eax
  401319:	69 c0 7e 97 00 00    	imul   $0x977e,%eax,%eax
  40131f:	89 44 24 d0          	mov    %eax,-0x30(%rsp)
  401323:	8b 44 24 f0          	mov    -0x10(%rsp),%eax
  401327:	69 c0 ec b6 00 00    	imul   $0xb6ec,%eax,%eax
  40132d:	89 44 24 f0          	mov    %eax,-0x10(%rsp)
  401331:	8b 44 24 e8          	mov    -0x18(%rsp),%eax
  401335:	69 c0 d2 15 00 00    	imul   $0x15d2,%eax,%eax
  40133b:	89 44 24 e8          	mov    %eax,-0x18(%rsp)
  40133f:	8b 44 24 d8          	mov    -0x28(%rsp),%eax
  401343:	69 c0 b9 de 00 00    	imul   $0xdeb9,%eax,%eax
  401349:	89 44 24 d8          	mov    %eax,-0x28(%rsp)
  40134d:	8b 44 24 d8          	mov    -0x28(%rsp),%eax
  401351:	69 c0 25 b2 00 00    	imul   $0xb225,%eax,%eax
  401357:	89 44 24 d8          	mov    %eax,-0x28(%rsp)
  40135b:	8b 44 24 e4          	mov    -0x1c(%rsp),%eax
  40135f:	69 c0 ec ee 00 00    	imul   $0xeeec,%eax,%eax
  401365:	89 44 24 e4          	mov    %eax,-0x1c(%rsp)
  401369:	8b 44 24 d8          	mov    -0x28(%rsp),%eax
  40136d:	69 c0 b0 d1 00 00    	imul   $0xd1b0,%eax,%eax
  401373:	89 44 24 d8          	mov    %eax,-0x28(%rsp)
  401377:	8b 44 24 dc          	mov    -0x24(%rsp),%eax
  40137b:	69 c0 f6 e1 00 00    	imul   $0xe1f6,%eax,%eax
  401381:	89 44 24 dc          	mov    %eax,-0x24(%rsp)
  401385:	8b 44 24 e4          	mov    -0x1c(%rsp),%eax
  401389:	69 c0 91 41 00 00    	imul   $0x4191,%eax,%eax
  40138f:	89 44 24 e4          	mov    %eax,-0x1c(%rsp)
  401393:	8b 44 24 ec          	mov    -0x14(%rsp),%eax
  401397:	69 c0 92 21 00 00    	imul   $0x2192,%eax,%eax
  40139d:	89 44 24 ec          	mov    %eax,-0x14(%rsp)
  4013a1:	8b 44 24 d8          	mov    -0x28(%rsp),%eax
  4013a5:	69 c0 7e 2d 00 00    	imul   $0x2d7e,%eax,%eax
  4013ab:	89 44 24 d8          	mov    %eax,-0x28(%rsp)
  4013af:	8b 44 24 e8          	mov    -0x18(%rsp),%eax
  4013b3:	69 c0 6a b3 00 00    	imul   $0xb36a,%eax,%eax
  4013b9:	89 44 24 e8          	mov    %eax,-0x18(%rsp)
  4013bd:	8b 44 24 e0          	mov    -0x20(%rsp),%eax
  4013c1:	69 c0 35 b3 00 00    	imul   $0xb335,%eax,%eax
  4013c7:	89 44 24 e0          	mov    %eax,-0x20(%rsp)
  4013cb:	8b 44 24 d8          	mov    -0x28(%rsp),%eax
  4013cf:	69 c0 e0 8f 00 00    	imul   $0x8fe0,%eax,%eax
  4013d5:	89 44 24 d8          	mov    %eax,-0x28(%rsp)
  4013d9:	8b 44 24 ec          	mov    -0x14(%rsp),%eax
  4013dd:	69 c0 5e 82 00 00    	imul   $0x825e,%eax,%eax
  4013e3:	89 44 24 ec          	mov    %eax,-0x14(%rsp)
  4013e7:	8b 44 24 e8          	mov    -0x18(%rsp),%eax
  4013eb:	69 c0 cf 48 00 00    	imul   $0x48cf,%eax,%eax
  4013f1:	89 44 24 e8          	mov    %eax,-0x18(%rsp)
  4013f5:	8b 44 24 f4          	mov    -0xc(%rsp),%eax
  4013f9:	69 c0 47 5d 00 00    	imul   $0x5d47,%eax,%eax
  4013ff:	89 44 24 f4          	mov    %eax,-0xc(%rsp)
  401403:	8b 44 24 f0          	mov    -0x10(%rsp),%eax
  401407:	69 c0 3b 32 00 00    	imul   $0x323b,%eax,%eax
  40140d:	89 44 24 f0          	mov    %eax,-0x10(%rsp)
  401411:	8b 44 24 e8          	mov    -0x18(%rsp),%eax
  401415:	69 c0 fe 1a 00 00    	imul   $0x1afe,%eax,%eax
  40141b:	89 44 24 e8          	mov    %eax,-0x18(%rsp)
  40141f:	8b 44 24 ec          	mov    -0x14(%rsp),%eax
  401423:	6b c0 76             	imul   $0x76,%eax,%eax
  401426:	89 44 24 ec          	mov    %eax,-0x14(%rsp)
  40142a:	8b 44 24 d0          	mov    -0x30(%rsp),%eax
  40142e:	69 c0 b9 1e 00 00    	imul   $0x1eb9,%eax,%eax
  401434:	89 44 24 d0          	mov    %eax,-0x30(%rsp)
  401438:	8b 44 24 ec          	mov    -0x14(%rsp),%eax
  40143c:	69 c0 58 78 00 00    	imul   $0x7858,%eax,%eax
  401442:	89 44 24 ec          	mov    %eax,-0x14(%rsp)
  401446:	8b 44 24 e8          	mov    -0x18(%rsp),%eax
  40144a:	69 c0 a7 a9 00 00    	imul   $0xa9a7,%eax,%eax
  401450:	89 44 24 e8          	mov    %eax,-0x18(%rsp)
  401454:	8b 44 24 e0          	mov    -0x20(%rsp),%eax
  401458:	69 c0 68 c4 00 00    	imul   $0xc468,%eax,%eax
  40145e:	89 44 24 e0          	mov    %eax,-0x20(%rsp)
  401462:	8b 44 24 e8          	mov    -0x18(%rsp),%eax
  401466:	69 c0 5b 75 00 00    	imul   $0x755b,%eax,%eax
  40146c:	89 44 24 e8          	mov    %eax,-0x18(%rsp)
  401470:	8b 44 24 f4          	mov    -0xc(%rsp),%eax
  401474:	69 c0 9a 07 00 00    	imul   $0x79a,%eax,%eax
  40147a:	89 44 24 f4          	mov    %eax,-0xc(%rsp)
  40147e:	8b 44 24 e8          	mov    -0x18(%rsp),%eax
  401482:	69 c0 7c b1 00 00    	imul   $0xb17c,%eax,%eax
  401488:	89 44 24 e8          	mov    %eax,-0x18(%rsp)
  40148c:	8b 44 24 f0          	mov    -0x10(%rsp),%eax
  401490:	69 c0 d0 7d 00 00    	imul   $0x7dd0,%eax,%eax
  401496:	89 44 24 f0          	mov    %eax,-0x10(%rsp)
  40149a:	8b 44 24 e8          	mov    -0x18(%rsp),%eax
  40149e:	69 c0 00 5c 00 00    	imul   $0x5c00,%eax,%eax
  4014a4:	89 44 24 e8          	mov    %eax,-0x18(%rsp)
  4014a8:	8b 44 24 f4          	mov    -0xc(%rsp),%eax
  4014ac:	69 c0 fa 29 00 00    	imul   $0x29fa,%eax,%eax
  4014b2:	89 44 24 f4          	mov    %eax,-0xc(%rsp)
  4014b6:	8b 44 24 d4          	mov    -0x2c(%rsp),%eax
  4014ba:	69 c0 39 6f 00 00    	imul   $0x6f39,%eax,%eax
  4014c0:	89 44 24 d4          	mov    %eax,-0x2c(%rsp)
  4014c4:	8b 44 24 e4          	mov    -0x1c(%rsp),%eax
  4014c8:	69 c0 3b f8 00 00    	imul   $0xf83b,%eax,%eax
  4014ce:	89 44 24 e4          	mov    %eax,-0x1c(%rsp)
  4014d2:	8b 44 24 d8          	mov    -0x28(%rsp),%eax
  4014d6:	69 c0 85 72 00 00    	imul   $0x7285,%eax,%eax
  4014dc:	89 44 24 d8          	mov    %eax,-0x28(%rsp)
  4014e0:	8b 44 24 d4          	mov    -0x2c(%rsp),%eax
  4014e4:	69 c0 9b 3f 00 00    	imul   $0x3f9b,%eax,%eax
  4014ea:	89 44 24 d4          	mov    %eax,-0x2c(%rsp)
  4014ee:	8b 44 24 dc          	mov    -0x24(%rsp),%eax
  4014f2:	69 c0 6b 3b 00 00    	imul   $0x3b6b,%eax,%eax
  4014f8:	89 44 24 dc          	mov    %eax,-0x24(%rsp)
  4014fc:	8b 44 24 d0          	mov    -0x30(%rsp),%eax
  401500:	69 c0 a6 5a 00 00    	imul   $0x5aa6,%eax,%eax
  401506:	89 44 24 d0          	mov    %eax,-0x30(%rsp)
  40150a:	8b 44 24 e0          	mov    -0x20(%rsp),%eax
  40150e:	69 c0 73 2f 00 00    	imul   $0x2f73,%eax,%eax
  401514:	89 44 24 e0          	mov    %eax,-0x20(%rsp)
  401518:	8b 44 24 d0          	mov    -0x30(%rsp),%eax
  40151c:	69 c0 8d 4a 00 00    	imul   $0x4a8d,%eax,%eax
  401522:	89 44 24 d0          	mov    %eax,-0x30(%rsp)
  401526:	8b 44 24 d4          	mov    -0x2c(%rsp),%eax
  40152a:	69 c0 4c 2d 00 00    	imul   $0x2d4c,%eax,%eax
  401530:	89 44 24 d4          	mov    %eax,-0x2c(%rsp)
  401534:	8b 44 24 dc          	mov    -0x24(%rsp),%eax
  401538:	69 c0 53 c4 00 00    	imul   $0xc453,%eax,%eax
  40153e:	89 44 24 dc          	mov    %eax,-0x24(%rsp)
  401542:	8b 44 24 d4          	mov    -0x2c(%rsp),%eax
  401546:	69 c0 ef f4 00 00    	imul   $0xf4ef,%eax,%eax
  40154c:	89 44 24 d4          	mov    %eax,-0x2c(%rsp)
  401550:	8b 44 24 f0          	mov    -0x10(%rsp),%eax
  401554:	69 c0 81 45 00 00    	imul   $0x4581,%eax,%eax
  40155a:	89 44 24 f0          	mov    %eax,-0x10(%rsp)
  40155e:	8b 44 24 d4          	mov    -0x2c(%rsp),%eax
  401562:	69 c0 f1 86 00 00    	imul   $0x86f1,%eax,%eax
  401568:	89 44 24 d4          	mov    %eax,-0x2c(%rsp)
  40156c:	8b 44 24 d8          	mov    -0x28(%rsp),%eax
  401570:	69 c0 1e 0b 00 00    	imul   $0xb1e,%eax,%eax
  401576:	89 44 24 d8          	mov    %eax,-0x28(%rsp)
  40157a:	8b 44 24 d0          	mov    -0x30(%rsp),%eax
  40157e:	69 c0 01 d1 00 00    	imul   $0xd101,%eax,%eax
  401584:	89 44 24 d0          	mov    %eax,-0x30(%rsp)
  401588:	8b 44 24 e4          	mov    -0x1c(%rsp),%eax
  40158c:	69 c0 51 c1 00 00    	imul   $0xc151,%eax,%eax
  401592:	89 44 24 e4          	mov    %eax,-0x1c(%rsp)
  401596:	8b 44 24 d8          	mov    -0x28(%rsp),%eax
  40159a:	69 c0 e2 a7 00 00    	imul   $0xa7e2,%eax,%eax
  4015a0:	89 44 24 d8          	mov    %eax,-0x28(%rsp)
  4015a4:	8b 44 24 ec          	mov    -0x14(%rsp),%eax
  4015a8:	69 c0 bc 0c 00 00    	imul   $0xcbc,%eax,%eax
  4015ae:	89 44 24 ec          	mov    %eax,-0x14(%rsp)
  4015b2:	8b 44 24 dc          	mov    -0x24(%rsp),%eax
  4015b6:	69 c0 03 e4 00 00    	imul   $0xe403,%eax,%eax
  4015bc:	89 44 24 dc          	mov    %eax,-0x24(%rsp)
  4015c0:	8b 44 24 e8          	mov    -0x18(%rsp),%eax
  4015c4:	69 c0 ea a7 00 00    	imul   $0xa7ea,%eax,%eax
  4015ca:	89 44 24 e8          	mov    %eax,-0x18(%rsp)
  4015ce:	8b 44 24 f0          	mov    -0x10(%rsp),%eax
  4015d2:	69 c0 68 8c 00 00    	imul   $0x8c68,%eax,%eax
  4015d8:	89 44 24 f0          	mov    %eax,-0x10(%rsp)
  4015dc:	8b 44 24 dc          	mov    -0x24(%rsp),%eax
  4015e0:	69 c0 92 79 00 00    	imul   $0x7992,%eax,%eax
  4015e6:	89 44 24 dc          	mov    %eax,-0x24(%rsp)
  4015ea:	8b 44 24 ec          	mov    -0x14(%rsp),%eax
  4015ee:	69 c0 8e d5 00 00    	imul   $0xd58e,%eax,%eax
  4015f4:	89 44 24 ec          	mov    %eax,-0x14(%rsp)
  4015f8:	8b 44 24 e0          	mov    -0x20(%rsp),%eax
  4015fc:	69 c0 f6 94 00 00    	imul   $0x94f6,%eax,%eax
  401602:	89 44 24 e0          	mov    %eax,-0x20(%rsp)
  401606:	8b 44 24 dc          	mov    -0x24(%rsp),%eax
  40160a:	69 c0 14 d3 00 00    	imul   $0xd314,%eax,%eax
  401610:	89 44 24 dc          	mov    %eax,-0x24(%rsp)
  401614:	8b 44 24 ec          	mov    -0x14(%rsp),%eax
  401618:	69 c0 81 a5 00 00    	imul   $0xa581,%eax,%eax
  40161e:	89 44 24 ec          	mov    %eax,-0x14(%rsp)
  401622:	8b 44 24 d8          	mov    -0x28(%rsp),%eax
  401626:	69 c0 36 25 00 00    	imul   $0x2536,%eax,%eax
  40162c:	89 44 24 d8          	mov    %eax,-0x28(%rsp)
  401630:	8b 44 24 dc          	mov    -0x24(%rsp),%eax
  401634:	69 c0 6f 6e 00 00    	imul   $0x6e6f,%eax,%eax
  40163a:	89 44 24 dc          	mov    %eax,-0x24(%rsp)
  40163e:	8b 44 24 dc          	mov    -0x24(%rsp),%eax
  401642:	69 c0 53 ae 00 00    	imul   $0xae53,%eax,%eax
  401648:	89 44 24 dc          	mov    %eax,-0x24(%rsp)
  40164c:	8b 44 24 e4          	mov    -0x1c(%rsp),%eax
  401650:	69 c0 19 8f 00 00    	imul   $0x8f19,%eax,%eax
  401656:	89 44 24 e4          	mov    %eax,-0x1c(%rsp)
  40165a:	8b 44 24 d8          	mov    -0x28(%rsp),%eax
  40165e:	69 c0 a6 ae 00 00    	imul   $0xaea6,%eax,%eax
  401664:	89 44 24 d8          	mov    %eax,-0x28(%rsp)
  401668:	8b 44 24 d0          	mov    -0x30(%rsp),%eax
  40166c:	69 c0 90 bf 00 00    	imul   $0xbf90,%eax,%eax
  401672:	89 44 24 d0          	mov    %eax,-0x30(%rsp)
  401676:	8b 44 24 d8          	mov    -0x28(%rsp),%eax
  40167a:	69 c0 f7 09 00 00    	imul   $0x9f7,%eax,%eax
  401680:	89 44 24 d8          	mov    %eax,-0x28(%rsp)
  401684:	8b 44 24 d8          	mov    -0x28(%rsp),%eax
  401688:	69 c0 ef 70 00 00    	imul   $0x70ef,%eax,%eax
  40168e:	89 44 24 d8          	mov    %eax,-0x28(%rsp)
  401692:	ba 00 00 00 00       	mov    $0x0,%edx
  401697:	b8 00 00 00 00       	mov    $0x0,%eax
  40169c:	83 fa 09             	cmp    $0x9,%edx
  40169f:	77 0d                	ja     4016ae <scramble+0x496>
  4016a1:	89 d1                	mov    %edx,%ecx
  4016a3:	8b 4c 8c d0          	mov    -0x30(%rsp,%rcx,4),%ecx
  4016a7:	01 c8                	add    %ecx,%eax
  4016a9:	83 c2 01             	add    $0x1,%edx
  4016ac:	eb ee                	jmp    40169c <scramble+0x484>
  4016ae:	c3                   	retq   

00000000004016af <getbuf>:
  4016af:	48 83 ec 38          	sub    $0x38,%rsp
  4016b3:	48 89 e7             	mov    %rsp,%rdi
  4016b6:	e8 51 03 00 00       	callq  401a0c <Gets>
  4016bb:	b8 01 00 00 00       	mov    $0x1,%eax
  4016c0:	48 83 c4 38          	add    $0x38,%rsp
  4016c4:	c3                   	retq   

00000000004016c5 <touch1>:
  4016c5:	48 83 ec 08          	sub    $0x8,%rsp
  4016c9:	c7 05 29 3e 20 00 01 	movl   $0x1,0x203e29(%rip)        # 6054fc <vlevel>
  4016d0:	00 00 00 
  4016d3:	bf 78 2f 40 00       	mov    $0x402f78,%edi
  4016d8:	e8 33 f5 ff ff       	callq  400c10 <puts@plt>
  4016dd:	bf 01 00 00 00       	mov    $0x1,%edi
  4016e2:	e8 18 05 00 00       	callq  401bff <validate>
  4016e7:	bf 00 00 00 00       	mov    $0x0,%edi
  4016ec:	e8 af f6 ff ff       	callq  400da0 <exit@plt>

00000000004016f1 <touch2>:
  4016f1:	48 83 ec 08          	sub    $0x8,%rsp
  4016f5:	89 fe                	mov    %edi,%esi
  4016f7:	c7 05 fb 3d 20 00 02 	movl   $0x2,0x203dfb(%rip)        # 6054fc <vlevel>
  4016fe:	00 00 00 
  401701:	39 3d fd 3d 20 00    	cmp    %edi,0x203dfd(%rip)        # 605504 <cookie>
  401707:	74 23                	je     40172c <touch2+0x3b>
  401709:	bf c8 2f 40 00       	mov    $0x402fc8,%edi
  40170e:	b8 00 00 00 00       	mov    $0x0,%eax
  401713:	e8 28 f5 ff ff       	callq  400c40 <printf@plt>
  401718:	bf 02 00 00 00       	mov    $0x2,%edi
  40171d:	e8 8f 05 00 00       	callq  401cb1 <fail>
  401722:	bf 00 00 00 00       	mov    $0x0,%edi
  401727:	e8 74 f6 ff ff       	callq  400da0 <exit@plt>
  40172c:	bf a0 2f 40 00       	mov    $0x402fa0,%edi
  401731:	b8 00 00 00 00       	mov    $0x0,%eax
  401736:	e8 05 f5 ff ff       	callq  400c40 <printf@plt>
  40173b:	bf 02 00 00 00       	mov    $0x2,%edi
  401740:	e8 ba 04 00 00       	callq  401bff <validate>
  401745:	eb db                	jmp    401722 <touch2+0x31>

0000000000401747 <hexmatch>:
  401747:	41 54                	push   %r12
  401749:	55                   	push   %rbp
  40174a:	53                   	push   %rbx
  40174b:	48 83 ec 70          	sub    $0x70,%rsp
  40174f:	89 fd                	mov    %edi,%ebp
  401751:	48 89 f3             	mov    %rsi,%rbx
  401754:	e8 a7 f5 ff ff       	callq  400d00 <random@plt>
  401759:	48 89 c1             	mov    %rax,%rcx
  40175c:	48 ba 0b d7 a3 70 3d 	mov    $0xa3d70a3d70a3d70b,%rdx
  401763:	0a d7 a3 
  401766:	48 f7 ea             	imul   %rdx
  401769:	48 01 ca             	add    %rcx,%rdx
  40176c:	48 c1 fa 06          	sar    $0x6,%rdx
  401770:	48 89 c8             	mov    %rcx,%rax
  401773:	48 c1 f8 3f          	sar    $0x3f,%rax
  401777:	48 29 c2             	sub    %rax,%rdx
  40177a:	48 8d 04 92          	lea    (%rdx,%rdx,4),%rax
  40177e:	48 8d 14 80          	lea    (%rax,%rax,4),%rdx
  401782:	48 8d 04 95 00 00 00 	lea    0x0(,%rdx,4),%rax
  401789:	00 
  40178a:	48 29 c1             	sub    %rax,%rcx
  40178d:	4c 8d 24 0c          	lea    (%rsp,%rcx,1),%r12
  401791:	89 ea                	mov    %ebp,%edx
  401793:	be 95 2f 40 00       	mov    $0x402f95,%esi
  401798:	4c 89 e7             	mov    %r12,%rdi
  40179b:	b8 00 00 00 00       	mov    $0x0,%eax
  4017a0:	e8 eb f5 ff ff       	callq  400d90 <sprintf@plt>
  4017a5:	ba 09 00 00 00       	mov    $0x9,%edx
  4017aa:	4c 89 e6             	mov    %r12,%rsi
  4017ad:	48 89 df             	mov    %rbx,%rdi
  4017b0:	e8 3b f4 ff ff       	callq  400bf0 <strncmp@plt>
  4017b5:	85 c0                	test   %eax,%eax
  4017b7:	0f 94 c0             	sete   %al
  4017ba:	0f b6 c0             	movzbl %al,%eax
  4017bd:	48 83 c4 70          	add    $0x70,%rsp
  4017c1:	5b                   	pop    %rbx
  4017c2:	5d                   	pop    %rbp
  4017c3:	41 5c                	pop    %r12
  4017c5:	c3                   	retq   

00000000004017c6 <touch3>:
  4017c6:	53                   	push   %rbx
  4017c7:	48 89 fb             	mov    %rdi,%rbx
  4017ca:	c7 05 28 3d 20 00 03 	movl   $0x3,0x203d28(%rip)        # 6054fc <vlevel>
  4017d1:	00 00 00 
  4017d4:	48 89 fe             	mov    %rdi,%rsi
  4017d7:	8b 3d 27 3d 20 00    	mov    0x203d27(%rip),%edi        # 605504 <cookie>
  4017dd:	e8 65 ff ff ff       	callq  401747 <hexmatch>
  4017e2:	85 c0                	test   %eax,%eax
  4017e4:	74 26                	je     40180c <touch3+0x46>
  4017e6:	48 89 de             	mov    %rbx,%rsi
  4017e9:	bf f0 2f 40 00       	mov    $0x402ff0,%edi
  4017ee:	b8 00 00 00 00       	mov    $0x0,%eax
  4017f3:	e8 48 f4 ff ff       	callq  400c40 <printf@plt>
  4017f8:	bf 03 00 00 00       	mov    $0x3,%edi
  4017fd:	e8 fd 03 00 00       	callq  401bff <validate>
  401802:	bf 00 00 00 00       	mov    $0x0,%edi
  401807:	e8 94 f5 ff ff       	callq  400da0 <exit@plt>
  40180c:	48 89 de             	mov    %rbx,%rsi
  40180f:	bf 18 30 40 00       	mov    $0x403018,%edi
  401814:	b8 00 00 00 00       	mov    $0x0,%eax
  401819:	e8 22 f4 ff ff       	callq  400c40 <printf@plt>
  40181e:	bf 03 00 00 00       	mov    $0x3,%edi
  401823:	e8 89 04 00 00       	callq  401cb1 <fail>
  401828:	eb d8                	jmp    401802 <touch3+0x3c>

000000000040182a <test>:
  40182a:	48 83 ec 08          	sub    $0x8,%rsp
  40182e:	b8 00 00 00 00       	mov    $0x0,%eax
  401833:	e8 77 fe ff ff       	callq  4016af <getbuf>
  401838:	89 c6                	mov    %eax,%esi
  40183a:	bf 40 30 40 00       	mov    $0x403040,%edi
  40183f:	b8 00 00 00 00       	mov    $0x0,%eax
  401844:	e8 f7 f3 ff ff       	callq  400c40 <printf@plt>
  401849:	48 83 c4 08          	add    $0x8,%rsp
  40184d:	c3                   	retq   

000000000040184e <start_farm>:
  40184e:	b8 01 00 00 00       	mov    $0x1,%eax
  401853:	c3                   	retq   

0000000000401854 <addval_233>:
  401854:	8d 87 43 d8 c3 be    	lea    -0x413c27bd(%rdi),%eax
  40185a:	c3                   	retq   

000000000040185b <addval_465>:
  40185b:	8d 87 48 89 c7 c3    	lea    -0x3c3876b8(%rdi),%eax
  401861:	c3                   	retq   

0000000000401862 <addval_161>:
  401862:	8d 87 58 90 c7 8e    	lea    -0x71386fa8(%rdi),%eax
  401868:	c3                   	retq   

0000000000401869 <addval_482>:
  401869:	8d 87 3f 48 81 c7    	lea    -0x387eb7c1(%rdi),%eax
  40186f:	c3                   	retq   

0000000000401870 <getval_109>:
  401870:	b8 58 90 90 c3       	mov    $0xc3909058,%eax
  401875:	c3                   	retq   

0000000000401876 <getval_331>:
  401876:	b8 48 89 c7 c3       	mov    $0xc3c78948,%eax
  40187b:	c3                   	retq   

000000000040187c <addval_435>:
  40187c:	8d 87 48 a9 c7 90    	lea    -0x6f3856b8(%rdi),%eax
  401882:	c3                   	retq   

0000000000401883 <getval_422>:
  401883:	b8 57 58 90 90       	mov    $0x90905857,%eax
  401888:	c3                   	retq   

0000000000401889 <mid_farm>:
  401889:	b8 01 00 00 00       	mov    $0x1,%eax
  40188e:	c3                   	retq   

000000000040188f <add_xy>:
  40188f:	48 8d 04 37          	lea    (%rdi,%rsi,1),%rax
  401893:	c3                   	retq   

0000000000401894 <addval_427>:
  401894:	8d 87 89 c1 28 d2    	lea    -0x2dd73e77(%rdi),%eax
  40189a:	c3                   	retq   

000000000040189b <addval_271>:
  40189b:	8d 87 8d ca 90 90    	lea    -0x6f6f3573(%rdi),%eax
  4018a1:	c3                   	retq   

00000000004018a2 <getval_320>:
  4018a2:	b8 99 c1 84 c9       	mov    $0xc984c199,%eax
  4018a7:	c3                   	retq   

00000000004018a8 <setval_223>:
  4018a8:	c7 07 89 c1 60 c0    	movl   $0xc060c189,(%rdi)
  4018ae:	c3                   	retq   

00000000004018af <addval_147>:
  4018af:	8d 87 c8 89 d6 92    	lea    -0x6d297638(%rdi),%eax
  4018b5:	c3                   	retq   

00000000004018b6 <addval_242>:
  4018b6:	8d 87 89 ca c7 bf    	lea    -0x40383577(%rdi),%eax
  4018bc:	c3                   	retq   

00000000004018bd <getval_339>:
  4018bd:	b8 81 d6 20 d2       	mov    $0xd220d681,%eax
  4018c2:	c3                   	retq   

00000000004018c3 <setval_291>:
  4018c3:	c7 07 48 09 e0 c3    	movl   $0xc3e00948,(%rdi)
  4018c9:	c3                   	retq   

00000000004018ca <getval_236>:
  4018ca:	b8 23 4a 89 e0       	mov    $0xe0894a23,%eax
  4018cf:	c3                   	retq   

00000000004018d0 <setval_224>:
  4018d0:	c7 07 48 89 e0 c3    	movl   $0xc3e08948,(%rdi)
  4018d6:	c3                   	retq   

00000000004018d7 <addval_215>:
  4018d7:	8d 87 89 c1 92 90    	lea    -0x6f6d3e77(%rdi),%eax
  4018dd:	c3                   	retq   

00000000004018de <getval_237>:
  4018de:	b8 b8 48 8d e0       	mov    $0xe08d48b8,%eax
  4018e3:	c3                   	retq   

00000000004018e4 <setval_219>:
  4018e4:	c7 07 89 d6 91 90    	movl   $0x9091d689,(%rdi)
  4018ea:	c3                   	retq   

00000000004018eb <setval_370>:
  4018eb:	c7 07 68 89 e0 c3    	movl   $0xc3e08968,(%rdi)
  4018f1:	c3                   	retq   

00000000004018f2 <setval_119>:
  4018f2:	c7 07 89 ca 84 c9    	movl   $0xc984ca89,(%rdi)
  4018f8:	c3                   	retq   

00000000004018f9 <addval_475>:
  4018f9:	8d 87 89 ca c4 c9    	lea    -0x363b3577(%rdi),%eax
  4018ff:	c3                   	retq   

0000000000401900 <addval_101>:
  401900:	8d 87 89 d6 38 db    	lea    -0x24c72977(%rdi),%eax
  401906:	c3                   	retq   

0000000000401907 <getval_250>:
  401907:	b8 89 c1 08 c9       	mov    $0xc908c189,%eax
  40190c:	c3                   	retq   

000000000040190d <addval_149>:
  40190d:	8d 87 c9 c1 90 c3    	lea    -0x3c6f3e37(%rdi),%eax
  401913:	c3                   	retq   

0000000000401914 <getval_203>:
  401914:	b8 48 89 e0 c3       	mov    $0xc3e08948,%eax
  401919:	c3                   	retq   

000000000040191a <addval_446>:
  40191a:	8d 87 89 d6 a4 db    	lea    -0x245b2977(%rdi),%eax
  401920:	c3                   	retq   

0000000000401921 <setval_353>:
  401921:	c7 07 89 ca 08 d2    	movl   $0xd208ca89,(%rdi)
  401927:	c3                   	retq   

0000000000401928 <addval_116>:
  401928:	8d 87 48 89 e0 92    	lea    -0x6d1f76b8(%rdi),%eax
  40192e:	c3                   	retq   

000000000040192f <addval_358>:
  40192f:	8d 87 1f dd 81 d6    	lea    -0x297e22e1(%rdi),%eax
  401935:	c3                   	retq   

0000000000401936 <setval_189>:
  401936:	c7 07 99 ca 84 db    	movl   $0xdb84ca99,(%rdi)
  40193c:	c3                   	retq   

000000000040193d <getval_340>:
  40193d:	b8 48 89 e0 92       	mov    $0x92e08948,%eax
  401942:	c3                   	retq   

0000000000401943 <addval_182>:
  401943:	8d 87 89 d6 38 c0    	lea    -0x3fc72977(%rdi),%eax
  401949:	c3                   	retq   

000000000040194a <addval_348>:
  40194a:	8d 87 c9 c1 38 c0    	lea    -0x3fc73e37(%rdi),%eax
  401950:	c3                   	retq   

0000000000401951 <setval_284>:
  401951:	c7 07 61 8d ca c3    	movl   $0xc3ca8d61,(%rdi)
  401957:	c3                   	retq   

0000000000401958 <addval_341>:
  401958:	8d 87 89 d6 18 c0    	lea    -0x3fe72977(%rdi),%eax
  40195e:	c3                   	retq   

000000000040195f <addval_450>:
  40195f:	8d 87 89 ca 28 c0    	lea    -0x3fd73577(%rdi),%eax
  401965:	c3                   	retq   

0000000000401966 <setval_106>:
  401966:	c7 07 89 c1 c3 e8    	movl   $0xe8c3c189,(%rdi)
  40196c:	c3                   	retq   

000000000040196d <end_farm>:
  40196d:	b8 01 00 00 00       	mov    $0x1,%eax
  401972:	c3                   	retq   

0000000000401973 <save_char>:
  401973:	8b 05 ab 47 20 00    	mov    0x2047ab(%rip),%eax        # 606124 <gets_cnt>
  401979:	3d ff 03 00 00       	cmp    $0x3ff,%eax
  40197e:	7f 49                	jg     4019c9 <save_char+0x56>
  401980:	89 f9                	mov    %edi,%ecx
  401982:	c0 e9 04             	shr    $0x4,%cl
  401985:	8d 14 40             	lea    (%rax,%rax,2),%edx
  401988:	83 e1 0f             	and    $0xf,%ecx
  40198b:	0f b6 b1 60 33 40 00 	movzbl 0x403360(%rcx),%esi
  401992:	48 63 ca             	movslq %edx,%rcx
  401995:	40 88 b1 20 55 60 00 	mov    %sil,0x605520(%rcx)
  40199c:	8d 4a 01             	lea    0x1(%rdx),%ecx
  40199f:	83 e7 0f             	and    $0xf,%edi
  4019a2:	0f b6 b7 60 33 40 00 	movzbl 0x403360(%rdi),%esi
  4019a9:	48 63 c9             	movslq %ecx,%rcx
  4019ac:	40 88 b1 20 55 60 00 	mov    %sil,0x605520(%rcx)
  4019b3:	83 c2 02             	add    $0x2,%edx
  4019b6:	48 63 d2             	movslq %edx,%rdx
  4019b9:	c6 82 20 55 60 00 20 	movb   $0x20,0x605520(%rdx)
  4019c0:	83 c0 01             	add    $0x1,%eax
  4019c3:	89 05 5b 47 20 00    	mov    %eax,0x20475b(%rip)        # 606124 <gets_cnt>
  4019c9:	c3                   	retq   

00000000004019ca <save_term>:
  4019ca:	8b 05 54 47 20 00    	mov    0x204754(%rip),%eax        # 606124 <gets_cnt>
  4019d0:	8d 04 40             	lea    (%rax,%rax,2),%eax
  4019d3:	48 98                	cltq   
  4019d5:	c6 80 20 55 60 00 00 	movb   $0x0,0x605520(%rax)
  4019dc:	c3                   	retq   

00000000004019dd <check_fail>:
  4019dd:	48 83 ec 08          	sub    $0x8,%rsp
  4019e1:	0f be 35 40 47 20 00 	movsbl 0x204740(%rip),%esi        # 606128 <target_prefix>
  4019e8:	b9 20 55 60 00       	mov    $0x605520,%ecx
  4019ed:	8b 15 05 3b 20 00    	mov    0x203b05(%rip),%edx        # 6054f8 <check_level>
  4019f3:	bf 63 30 40 00       	mov    $0x403063,%edi
  4019f8:	b8 00 00 00 00       	mov    $0x0,%eax
  4019fd:	e8 3e f2 ff ff       	callq  400c40 <printf@plt>
  401a02:	bf 01 00 00 00       	mov    $0x1,%edi
  401a07:	e8 94 f3 ff ff       	callq  400da0 <exit@plt>

0000000000401a0c <Gets>:
  401a0c:	41 54                	push   %r12
  401a0e:	55                   	push   %rbp
  401a0f:	53                   	push   %rbx
  401a10:	49 89 fc             	mov    %rdi,%r12
  401a13:	c7 05 07 47 20 00 00 	movl   $0x0,0x204707(%rip)        # 606124 <gets_cnt>
  401a1a:	00 00 00 
  401a1d:	48 89 fb             	mov    %rdi,%rbx
  401a20:	48 8b 3d c9 3a 20 00 	mov    0x203ac9(%rip),%rdi        # 6054f0 <infile>
  401a27:	e8 e4 f2 ff ff       	callq  400d10 <_IO_getc@plt>
  401a2c:	83 f8 ff             	cmp    $0xffffffffffffffff,%eax
  401a2f:	74 18                	je     401a49 <Gets+0x3d>
  401a31:	83 f8 0a             	cmp    $0xa,%eax
  401a34:	74 13                	je     401a49 <Gets+0x3d>
  401a36:	48 8d 6b 01          	lea    0x1(%rbx),%rbp
  401a3a:	88 03                	mov    %al,(%rbx)
  401a3c:	0f b6 f8             	movzbl %al,%edi
  401a3f:	e8 2f ff ff ff       	callq  401973 <save_char>
  401a44:	48 89 eb             	mov    %rbp,%rbx
  401a47:	eb d7                	jmp    401a20 <Gets+0x14>
  401a49:	c6 03 00             	movb   $0x0,(%rbx)
  401a4c:	b8 00 00 00 00       	mov    $0x0,%eax
  401a51:	e8 74 ff ff ff       	callq  4019ca <save_term>
  401a56:	4c 89 e0             	mov    %r12,%rax
  401a59:	5b                   	pop    %rbx
  401a5a:	5d                   	pop    %rbp
  401a5b:	41 5c                	pop    %r12
  401a5d:	c3                   	retq   

0000000000401a5e <notify_server>:
  401a5e:	83 3d a3 3a 20 00 00 	cmpl   $0x0,0x203aa3(%rip)        # 605508 <is_checker>
  401a65:	0f 85 93 01 00 00    	jne    401bfe <notify_server+0x1a0>
  401a6b:	55                   	push   %rbp
  401a6c:	53                   	push   %rbx
  401a6d:	48 81 ec 08 40 00 00 	sub    $0x4008,%rsp
  401a74:	89 fb                	mov    %edi,%ebx
  401a76:	81 3d a4 46 20 00 9c 	cmpl   $0x1f9c,0x2046a4(%rip)        # 606124 <gets_cnt>
  401a7d:	1f 00 00 
  401a80:	0f 8f ad 00 00 00    	jg     401b33 <notify_server+0xd5>
  401a86:	44 0f be 0d 9a 46 20 	movsbl 0x20469a(%rip),%r9d        # 606128 <target_prefix>
  401a8d:	00 
  401a8e:	83 3d f3 39 20 00 00 	cmpl   $0x0,0x2039f3(%rip)        # 605488 <notify>
  401a95:	0f 84 b1 00 00 00    	je     401b4c <notify_server+0xee>
  401a9b:	44 8b 05 5e 3a 20 00 	mov    0x203a5e(%rip),%r8d        # 605500 <authkey>
  401aa2:	85 db                	test   %ebx,%ebx
  401aa4:	0f 84 ad 00 00 00    	je     401b57 <notify_server+0xf9>
  401aaa:	bd 7e 30 40 00       	mov    $0x40307e,%ebp
  401aaf:	68 20 55 60 00       	pushq  $0x605520
  401ab4:	56                   	push   %rsi
  401ab5:	48 89 e9             	mov    %rbp,%rcx
  401ab8:	8b 15 8a 36 20 00    	mov    0x20368a(%rip),%edx        # 605148 <target_id>
  401abe:	be 83 30 40 00       	mov    $0x403083,%esi
  401ac3:	48 8d bc 24 10 20 00 	lea    0x2010(%rsp),%rdi
  401aca:	00 
  401acb:	b8 00 00 00 00       	mov    $0x0,%eax
  401ad0:	e8 bb f2 ff ff       	callq  400d90 <sprintf@plt>
  401ad5:	48 83 c4 10          	add    $0x10,%rsp
  401ad9:	83 3d a8 39 20 00 00 	cmpl   $0x0,0x2039a8(%rip)        # 605488 <notify>
  401ae0:	0f 84 ab 00 00 00    	je     401b91 <notify_server+0x133>
  401ae6:	85 db                	test   %ebx,%ebx
  401ae8:	0f 84 8f 00 00 00    	je     401b7d <notify_server+0x11f>
  401aee:	49 89 e1             	mov    %rsp,%r9
  401af1:	41 b8 00 00 00 00    	mov    $0x0,%r8d
  401af7:	48 8d 8c 24 00 20 00 	lea    0x2000(%rsp),%rcx
  401afe:	00 
  401aff:	48 8b 15 4a 36 20 00 	mov    0x20364a(%rip),%rdx        # 605150 <lab>
  401b06:	48 8b 35 4b 36 20 00 	mov    0x20364b(%rip),%rsi        # 605158 <course>
  401b0d:	48 8b 3d 2c 36 20 00 	mov    0x20362c(%rip),%rdi        # 605140 <user_id>
  401b14:	e8 09 10 00 00       	callq  402b22 <driver_post>
  401b19:	85 c0                	test   %eax,%eax
  401b1b:	78 44                	js     401b61 <notify_server+0x103>
  401b1d:	bf c8 31 40 00       	mov    $0x4031c8,%edi
  401b22:	e8 e9 f0 ff ff       	callq  400c10 <puts@plt>
  401b27:	bf ab 30 40 00       	mov    $0x4030ab,%edi
  401b2c:	e8 df f0 ff ff       	callq  400c10 <puts@plt>
  401b31:	eb 54                	jmp    401b87 <notify_server+0x129>
  401b33:	bf 98 31 40 00       	mov    $0x403198,%edi
  401b38:	b8 00 00 00 00       	mov    $0x0,%eax
  401b3d:	e8 fe f0 ff ff       	callq  400c40 <printf@plt>
  401b42:	bf 01 00 00 00       	mov    $0x1,%edi
  401b47:	e8 54 f2 ff ff       	callq  400da0 <exit@plt>
  401b4c:	41 b8 ff ff ff ff    	mov    $0xffffffff,%r8d
  401b52:	e9 4b ff ff ff       	jmpq   401aa2 <notify_server+0x44>
  401b57:	bd 79 30 40 00       	mov    $0x403079,%ebp
  401b5c:	e9 4e ff ff ff       	jmpq   401aaf <notify_server+0x51>
  401b61:	48 89 e6             	mov    %rsp,%rsi
  401b64:	bf 9f 30 40 00       	mov    $0x40309f,%edi
  401b69:	b8 00 00 00 00       	mov    $0x0,%eax
  401b6e:	e8 cd f0 ff ff       	callq  400c40 <printf@plt>
  401b73:	bf 01 00 00 00       	mov    $0x1,%edi
  401b78:	e8 23 f2 ff ff       	callq  400da0 <exit@plt>
  401b7d:	bf b5 30 40 00       	mov    $0x4030b5,%edi
  401b82:	e8 89 f0 ff ff       	callq  400c10 <puts@plt>
  401b87:	48 81 c4 08 40 00 00 	add    $0x4008,%rsp
  401b8e:	5b                   	pop    %rbx
  401b8f:	5d                   	pop    %rbp
  401b90:	c3                   	retq   
  401b91:	48 89 ee             	mov    %rbp,%rsi
  401b94:	bf 00 32 40 00       	mov    $0x403200,%edi
  401b99:	b8 00 00 00 00       	mov    $0x0,%eax
  401b9e:	e8 9d f0 ff ff       	callq  400c40 <printf@plt>
  401ba3:	48 8b 35 96 35 20 00 	mov    0x203596(%rip),%rsi        # 605140 <user_id>
  401baa:	bf bc 30 40 00       	mov    $0x4030bc,%edi
  401baf:	b8 00 00 00 00       	mov    $0x0,%eax
  401bb4:	e8 87 f0 ff ff       	callq  400c40 <printf@plt>
  401bb9:	48 8b 35 98 35 20 00 	mov    0x203598(%rip),%rsi        # 605158 <course>
  401bc0:	bf c9 30 40 00       	mov    $0x4030c9,%edi
  401bc5:	b8 00 00 00 00       	mov    $0x0,%eax
  401bca:	e8 71 f0 ff ff       	callq  400c40 <printf@plt>
  401bcf:	48 8b 35 7a 35 20 00 	mov    0x20357a(%rip),%rsi        # 605150 <lab>
  401bd6:	bf d5 30 40 00       	mov    $0x4030d5,%edi
  401bdb:	b8 00 00 00 00       	mov    $0x0,%eax
  401be0:	e8 5b f0 ff ff       	callq  400c40 <printf@plt>
  401be5:	48 8d b4 24 00 20 00 	lea    0x2000(%rsp),%rsi
  401bec:	00 
  401bed:	bf de 30 40 00       	mov    $0x4030de,%edi
  401bf2:	b8 00 00 00 00       	mov    $0x0,%eax
  401bf7:	e8 44 f0 ff ff       	callq  400c40 <printf@plt>
  401bfc:	eb 89                	jmp    401b87 <notify_server+0x129>
  401bfe:	c3                   	retq   

0000000000401bff <validate>:
  401bff:	53                   	push   %rbx
  401c00:	89 fb                	mov    %edi,%ebx
  401c02:	83 3d ff 38 20 00 00 	cmpl   $0x0,0x2038ff(%rip)        # 605508 <is_checker>
  401c09:	74 60                	je     401c6b <validate+0x6c>
  401c0b:	39 3d eb 38 20 00    	cmp    %edi,0x2038eb(%rip)        # 6054fc <vlevel>
  401c11:	75 29                	jne    401c3c <validate+0x3d>
  401c13:	8b 35 df 38 20 00    	mov    0x2038df(%rip),%esi        # 6054f8 <check_level>
  401c19:	39 fe                	cmp    %edi,%esi
  401c1b:	75 33                	jne    401c50 <validate+0x51>
  401c1d:	0f be 35 04 45 20 00 	movsbl 0x204504(%rip),%esi        # 606128 <target_prefix>
  401c24:	b9 20 55 60 00       	mov    $0x605520,%ecx
  401c29:	89 fa                	mov    %edi,%edx
  401c2b:	bf 08 31 40 00       	mov    $0x403108,%edi
  401c30:	b8 00 00 00 00       	mov    $0x0,%eax
  401c35:	e8 06 f0 ff ff       	callq  400c40 <printf@plt>
  401c3a:	5b                   	pop    %rbx
  401c3b:	c3                   	retq   
  401c3c:	bf ea 30 40 00       	mov    $0x4030ea,%edi
  401c41:	e8 ca ef ff ff       	callq  400c10 <puts@plt>
  401c46:	b8 00 00 00 00       	mov    $0x0,%eax
  401c4b:	e8 8d fd ff ff       	callq  4019dd <check_fail>
  401c50:	89 fa                	mov    %edi,%edx
  401c52:	bf 28 32 40 00       	mov    $0x403228,%edi
  401c57:	b8 00 00 00 00       	mov    $0x0,%eax
  401c5c:	e8 df ef ff ff       	callq  400c40 <printf@plt>
  401c61:	b8 00 00 00 00       	mov    $0x0,%eax
  401c66:	e8 72 fd ff ff       	callq  4019dd <check_fail>
  401c6b:	39 3d 8b 38 20 00    	cmp    %edi,0x20388b(%rip)        # 6054fc <vlevel>
  401c71:	74 18                	je     401c8b <validate+0x8c>
  401c73:	bf ea 30 40 00       	mov    $0x4030ea,%edi
  401c78:	e8 93 ef ff ff       	callq  400c10 <puts@plt>
  401c7d:	89 de                	mov    %ebx,%esi
  401c7f:	bf 00 00 00 00       	mov    $0x0,%edi
  401c84:	e8 d5 fd ff ff       	callq  401a5e <notify_server>
  401c89:	eb af                	jmp    401c3a <validate+0x3b>
  401c8b:	0f be 15 96 44 20 00 	movsbl 0x204496(%rip),%edx        # 606128 <target_prefix>
  401c92:	89 fe                	mov    %edi,%esi
  401c94:	bf 50 32 40 00       	mov    $0x403250,%edi
  401c99:	b8 00 00 00 00       	mov    $0x0,%eax
  401c9e:	e8 9d ef ff ff       	callq  400c40 <printf@plt>
  401ca3:	89 de                	mov    %ebx,%esi
  401ca5:	bf 01 00 00 00       	mov    $0x1,%edi
  401caa:	e8 af fd ff ff       	callq  401a5e <notify_server>
  401caf:	eb 89                	jmp    401c3a <validate+0x3b>

0000000000401cb1 <fail>:
  401cb1:	48 83 ec 08          	sub    $0x8,%rsp
  401cb5:	83 3d 4c 38 20 00 00 	cmpl   $0x0,0x20384c(%rip)        # 605508 <is_checker>
  401cbc:	75 11                	jne    401ccf <fail+0x1e>
  401cbe:	89 fe                	mov    %edi,%esi
  401cc0:	bf 00 00 00 00       	mov    $0x0,%edi
  401cc5:	e8 94 fd ff ff       	callq  401a5e <notify_server>
  401cca:	48 83 c4 08          	add    $0x8,%rsp
  401cce:	c3                   	retq   
  401ccf:	b8 00 00 00 00       	mov    $0x0,%eax
  401cd4:	e8 04 fd ff ff       	callq  4019dd <check_fail>

0000000000401cd9 <bushandler>:
  401cd9:	48 83 ec 08          	sub    $0x8,%rsp
  401cdd:	83 3d 24 38 20 00 00 	cmpl   $0x0,0x203824(%rip)        # 605508 <is_checker>
  401ce4:	74 14                	je     401cfa <bushandler+0x21>
  401ce6:	bf 1d 31 40 00       	mov    $0x40311d,%edi
  401ceb:	e8 20 ef ff ff       	callq  400c10 <puts@plt>
  401cf0:	b8 00 00 00 00       	mov    $0x0,%eax
  401cf5:	e8 e3 fc ff ff       	callq  4019dd <check_fail>
  401cfa:	bf 88 32 40 00       	mov    $0x403288,%edi
  401cff:	e8 0c ef ff ff       	callq  400c10 <puts@plt>
  401d04:	bf 27 31 40 00       	mov    $0x403127,%edi
  401d09:	e8 02 ef ff ff       	callq  400c10 <puts@plt>
  401d0e:	be 00 00 00 00       	mov    $0x0,%esi
  401d13:	bf 00 00 00 00       	mov    $0x0,%edi
  401d18:	e8 41 fd ff ff       	callq  401a5e <notify_server>
  401d1d:	bf 01 00 00 00       	mov    $0x1,%edi
  401d22:	e8 79 f0 ff ff       	callq  400da0 <exit@plt>

0000000000401d27 <seghandler>:
  401d27:	48 83 ec 08          	sub    $0x8,%rsp
  401d2b:	83 3d d6 37 20 00 00 	cmpl   $0x0,0x2037d6(%rip)        # 605508 <is_checker>
  401d32:	74 14                	je     401d48 <seghandler+0x21>
  401d34:	bf 3d 31 40 00       	mov    $0x40313d,%edi
  401d39:	e8 d2 ee ff ff       	callq  400c10 <puts@plt>
  401d3e:	b8 00 00 00 00       	mov    $0x0,%eax
  401d43:	e8 95 fc ff ff       	callq  4019dd <check_fail>
  401d48:	bf a8 32 40 00       	mov    $0x4032a8,%edi
  401d4d:	e8 be ee ff ff       	callq  400c10 <puts@plt>
  401d52:	bf 27 31 40 00       	mov    $0x403127,%edi
  401d57:	e8 b4 ee ff ff       	callq  400c10 <puts@plt>
  401d5c:	be 00 00 00 00       	mov    $0x0,%esi
  401d61:	bf 00 00 00 00       	mov    $0x0,%edi
  401d66:	e8 f3 fc ff ff       	callq  401a5e <notify_server>
  401d6b:	bf 01 00 00 00       	mov    $0x1,%edi
  401d70:	e8 2b f0 ff ff       	callq  400da0 <exit@plt>

0000000000401d75 <illegalhandler>:
  401d75:	48 83 ec 08          	sub    $0x8,%rsp
  401d79:	83 3d 88 37 20 00 00 	cmpl   $0x0,0x203788(%rip)        # 605508 <is_checker>
  401d80:	74 14                	je     401d96 <illegalhandler+0x21>
  401d82:	bf 50 31 40 00       	mov    $0x403150,%edi
  401d87:	e8 84 ee ff ff       	callq  400c10 <puts@plt>
  401d8c:	b8 00 00 00 00       	mov    $0x0,%eax
  401d91:	e8 47 fc ff ff       	callq  4019dd <check_fail>
  401d96:	bf d0 32 40 00       	mov    $0x4032d0,%edi
  401d9b:	e8 70 ee ff ff       	callq  400c10 <puts@plt>
  401da0:	bf 27 31 40 00       	mov    $0x403127,%edi
  401da5:	e8 66 ee ff ff       	callq  400c10 <puts@plt>
  401daa:	be 00 00 00 00       	mov    $0x0,%esi
  401daf:	bf 00 00 00 00       	mov    $0x0,%edi
  401db4:	e8 a5 fc ff ff       	callq  401a5e <notify_server>
  401db9:	bf 01 00 00 00       	mov    $0x1,%edi
  401dbe:	e8 dd ef ff ff       	callq  400da0 <exit@plt>

0000000000401dc3 <sigalrmhandler>:
  401dc3:	48 83 ec 08          	sub    $0x8,%rsp
  401dc7:	83 3d 3a 37 20 00 00 	cmpl   $0x0,0x20373a(%rip)        # 605508 <is_checker>
  401dce:	74 14                	je     401de4 <sigalrmhandler+0x21>
  401dd0:	bf 64 31 40 00       	mov    $0x403164,%edi
  401dd5:	e8 36 ee ff ff       	callq  400c10 <puts@plt>
  401dda:	b8 00 00 00 00       	mov    $0x0,%eax
  401ddf:	e8 f9 fb ff ff       	callq  4019dd <check_fail>
  401de4:	be 05 00 00 00       	mov    $0x5,%esi
  401de9:	bf 00 33 40 00       	mov    $0x403300,%edi
  401dee:	b8 00 00 00 00       	mov    $0x0,%eax
  401df3:	e8 48 ee ff ff       	callq  400c40 <printf@plt>
  401df8:	be 00 00 00 00       	mov    $0x0,%esi
  401dfd:	bf 00 00 00 00       	mov    $0x0,%edi
  401e02:	e8 57 fc ff ff       	callq  401a5e <notify_server>
  401e07:	bf 01 00 00 00       	mov    $0x1,%edi
  401e0c:	e8 8f ef ff ff       	callq  400da0 <exit@plt>

0000000000401e11 <launch>:
  401e11:	55                   	push   %rbp
  401e12:	48 89 e5             	mov    %rsp,%rbp
  401e15:	48 89 fa             	mov    %rdi,%rdx
  401e18:	48 8d 47 17          	lea    0x17(%rdi),%rax
  401e1c:	48 83 e0 f0          	and    $0xfffffffffffffff0,%rax
  401e20:	48 29 c4             	sub    %rax,%rsp
  401e23:	48 8d 7c 24 0f       	lea    0xf(%rsp),%rdi
  401e28:	48 83 e7 f0          	and    $0xfffffffffffffff0,%rdi
  401e2c:	be f4 00 00 00       	mov    $0xf4,%esi
  401e31:	e8 1a ee ff ff       	callq  400c50 <memset@plt>
  401e36:	48 8b 05 63 36 20 00 	mov    0x203663(%rip),%rax        # 6054a0 <stdin@@GLIBC_2.2.5>
  401e3d:	48 39 05 ac 36 20 00 	cmp    %rax,0x2036ac(%rip)        # 6054f0 <infile>
  401e44:	74 29                	je     401e6f <launch+0x5e>
  401e46:	c7 05 ac 36 20 00 00 	movl   $0x0,0x2036ac(%rip)        # 6054fc <vlevel>
  401e4d:	00 00 00 
  401e50:	b8 00 00 00 00       	mov    $0x0,%eax
  401e55:	e8 d0 f9 ff ff       	callq  40182a <test>
  401e5a:	83 3d a7 36 20 00 00 	cmpl   $0x0,0x2036a7(%rip)        # 605508 <is_checker>
  401e61:	75 1d                	jne    401e80 <launch+0x6f>
  401e63:	bf 84 31 40 00       	mov    $0x403184,%edi
  401e68:	e8 a3 ed ff ff       	callq  400c10 <puts@plt>
  401e6d:	c9                   	leaveq 
  401e6e:	c3                   	retq   
  401e6f:	bf 6c 31 40 00       	mov    $0x40316c,%edi
  401e74:	b8 00 00 00 00       	mov    $0x0,%eax
  401e79:	e8 c2 ed ff ff       	callq  400c40 <printf@plt>
  401e7e:	eb c6                	jmp    401e46 <launch+0x35>
  401e80:	bf 79 31 40 00       	mov    $0x403179,%edi
  401e85:	e8 86 ed ff ff       	callq  400c10 <puts@plt>
  401e8a:	b8 00 00 00 00       	mov    $0x0,%eax
  401e8f:	e8 49 fb ff ff       	callq  4019dd <check_fail>

0000000000401e94 <stable_launch>:
  401e94:	53                   	push   %rbx
  401e95:	48 89 3d 4c 36 20 00 	mov    %rdi,0x20364c(%rip)        # 6054e8 <global_offset>
  401e9c:	41 b9 00 00 00 00    	mov    $0x0,%r9d
  401ea2:	41 b8 00 00 00 00    	mov    $0x0,%r8d
  401ea8:	b9 32 01 00 00       	mov    $0x132,%ecx
  401ead:	ba 07 00 00 00       	mov    $0x7,%edx
  401eb2:	be 00 00 10 00       	mov    $0x100000,%esi
  401eb7:	bf 00 60 58 55       	mov    $0x55586000,%edi
  401ebc:	e8 6f ed ff ff       	callq  400c30 <mmap@plt>
  401ec1:	48 89 c3             	mov    %rax,%rbx
  401ec4:	48 3d 00 60 58 55    	cmp    $0x55586000,%rax
  401eca:	75 43                	jne    401f0f <stable_launch+0x7b>
  401ecc:	48 8d 90 f8 ff 0f 00 	lea    0xffff8(%rax),%rdx
  401ed3:	48 89 15 56 42 20 00 	mov    %rdx,0x204256(%rip)        # 606130 <stack_top>
  401eda:	48 89 e0             	mov    %rsp,%rax
  401edd:	48 89 d4             	mov    %rdx,%rsp
  401ee0:	48 89 c2             	mov    %rax,%rdx
  401ee3:	48 89 15 f6 35 20 00 	mov    %rdx,0x2035f6(%rip)        # 6054e0 <global_save_stack>
  401eea:	48 8b 3d f7 35 20 00 	mov    0x2035f7(%rip),%rdi        # 6054e8 <global_offset>
  401ef1:	e8 1b ff ff ff       	callq  401e11 <launch>
  401ef6:	48 8b 05 e3 35 20 00 	mov    0x2035e3(%rip),%rax        # 6054e0 <global_save_stack>
  401efd:	48 89 c4             	mov    %rax,%rsp
  401f00:	be 00 00 10 00       	mov    $0x100000,%esi
  401f05:	48 89 df             	mov    %rbx,%rdi
  401f08:	e8 23 ee ff ff       	callq  400d30 <munmap@plt>
  401f0d:	5b                   	pop    %rbx
  401f0e:	c3                   	retq   
  401f0f:	be 00 00 10 00       	mov    $0x100000,%esi
  401f14:	48 89 c7             	mov    %rax,%rdi
  401f17:	e8 14 ee ff ff       	callq  400d30 <munmap@plt>
  401f1c:	ba 00 60 58 55       	mov    $0x55586000,%edx
  401f21:	be 38 33 40 00       	mov    $0x403338,%esi
  401f26:	48 8b 3d 9b 35 20 00 	mov    0x20359b(%rip),%rdi        # 6054c8 <stderr@@GLIBC_2.2.5>
  401f2d:	b8 00 00 00 00       	mov    $0x0,%eax
  401f32:	e8 99 ed ff ff       	callq  400cd0 <fprintf@plt>
  401f37:	bf 01 00 00 00       	mov    $0x1,%edi
  401f3c:	e8 5f ee ff ff       	callq  400da0 <exit@plt>

0000000000401f41 <rio_readinitb>:
  401f41:	89 37                	mov    %esi,(%rdi)
  401f43:	c7 47 04 00 00 00 00 	movl   $0x0,0x4(%rdi)
  401f4a:	48 8d 47 10          	lea    0x10(%rdi),%rax
  401f4e:	48 89 47 08          	mov    %rax,0x8(%rdi)
  401f52:	c3                   	retq   

0000000000401f53 <sigalrm_handler>:
  401f53:	48 83 ec 08          	sub    $0x8,%rsp
  401f57:	ba 00 00 00 00       	mov    $0x0,%edx
  401f5c:	be 70 33 40 00       	mov    $0x403370,%esi
  401f61:	48 8b 3d 60 35 20 00 	mov    0x203560(%rip),%rdi        # 6054c8 <stderr@@GLIBC_2.2.5>
  401f68:	b8 00 00 00 00       	mov    $0x0,%eax
  401f6d:	e8 5e ed ff ff       	callq  400cd0 <fprintf@plt>
  401f72:	bf 01 00 00 00       	mov    $0x1,%edi
  401f77:	e8 24 ee ff ff       	callq  400da0 <exit@plt>

0000000000401f7c <urlencode>:
  401f7c:	41 54                	push   %r12
  401f7e:	55                   	push   %rbp
  401f7f:	53                   	push   %rbx
  401f80:	48 83 ec 10          	sub    $0x10,%rsp
  401f84:	48 89 fb             	mov    %rdi,%rbx
  401f87:	48 89 f5             	mov    %rsi,%rbp
  401f8a:	48 c7 c1 ff ff ff ff 	mov    $0xffffffffffffffff,%rcx
  401f91:	b8 00 00 00 00       	mov    $0x0,%eax
  401f96:	f2 ae                	repnz scas %es:(%rdi),%al
  401f98:	48 89 ce             	mov    %rcx,%rsi
  401f9b:	48 f7 d6             	not    %rsi
  401f9e:	8d 46 ff             	lea    -0x1(%rsi),%eax
  401fa1:	eb 0e                	jmp    401fb1 <urlencode+0x35>
  401fa3:	88 55 00             	mov    %dl,0x0(%rbp)
  401fa6:	48 8d 6d 01          	lea    0x1(%rbp),%rbp
  401faa:	48 83 c3 01          	add    $0x1,%rbx
  401fae:	44 89 e0             	mov    %r12d,%eax
  401fb1:	44 8d 60 ff          	lea    -0x1(%rax),%r12d
  401fb5:	85 c0                	test   %eax,%eax
  401fb7:	0f 84 93 00 00 00    	je     402050 <urlencode+0xd4>
  401fbd:	0f b6 13             	movzbl (%rbx),%edx
  401fc0:	80 fa 2a             	cmp    $0x2a,%dl
  401fc3:	0f 94 c1             	sete   %cl
  401fc6:	80 fa 2d             	cmp    $0x2d,%dl
  401fc9:	0f 94 c0             	sete   %al
  401fcc:	08 c1                	or     %al,%cl
  401fce:	75 d3                	jne    401fa3 <urlencode+0x27>
  401fd0:	80 fa 2e             	cmp    $0x2e,%dl
  401fd3:	74 ce                	je     401fa3 <urlencode+0x27>
  401fd5:	80 fa 5f             	cmp    $0x5f,%dl
  401fd8:	74 c9                	je     401fa3 <urlencode+0x27>
  401fda:	8d 42 d0             	lea    -0x30(%rdx),%eax
  401fdd:	3c 09                	cmp    $0x9,%al
  401fdf:	76 c2                	jbe    401fa3 <urlencode+0x27>
  401fe1:	8d 42 bf             	lea    -0x41(%rdx),%eax
  401fe4:	3c 19                	cmp    $0x19,%al
  401fe6:	76 bb                	jbe    401fa3 <urlencode+0x27>
  401fe8:	8d 42 9f             	lea    -0x61(%rdx),%eax
  401feb:	3c 19                	cmp    $0x19,%al
  401fed:	76 b4                	jbe    401fa3 <urlencode+0x27>
  401fef:	80 fa 20             	cmp    $0x20,%dl
  401ff2:	74 4a                	je     40203e <urlencode+0xc2>
  401ff4:	8d 42 e0             	lea    -0x20(%rdx),%eax
  401ff7:	3c 5f                	cmp    $0x5f,%al
  401ff9:	0f 96 c1             	setbe  %cl
  401ffc:	80 fa 09             	cmp    $0x9,%dl
  401fff:	0f 94 c0             	sete   %al
  402002:	08 c1                	or     %al,%cl
  402004:	74 45                	je     40204b <urlencode+0xcf>
  402006:	0f b6 d2             	movzbl %dl,%edx
  402009:	be 08 34 40 00       	mov    $0x403408,%esi
  40200e:	48 8d 7c 24 08       	lea    0x8(%rsp),%rdi
  402013:	b8 00 00 00 00       	mov    $0x0,%eax
  402018:	e8 73 ed ff ff       	callq  400d90 <sprintf@plt>
  40201d:	0f b6 44 24 08       	movzbl 0x8(%rsp),%eax
  402022:	88 45 00             	mov    %al,0x0(%rbp)
  402025:	0f b6 44 24 09       	movzbl 0x9(%rsp),%eax
  40202a:	88 45 01             	mov    %al,0x1(%rbp)
  40202d:	0f b6 44 24 0a       	movzbl 0xa(%rsp),%eax
  402032:	88 45 02             	mov    %al,0x2(%rbp)
  402035:	48 8d 6d 03          	lea    0x3(%rbp),%rbp
  402039:	e9 6c ff ff ff       	jmpq   401faa <urlencode+0x2e>
  40203e:	c6 45 00 2b          	movb   $0x2b,0x0(%rbp)
  402042:	48 8d 6d 01          	lea    0x1(%rbp),%rbp
  402046:	e9 5f ff ff ff       	jmpq   401faa <urlencode+0x2e>
  40204b:	b8 ff ff ff ff       	mov    $0xffffffff,%eax
  402050:	48 83 c4 10          	add    $0x10,%rsp
  402054:	5b                   	pop    %rbx
  402055:	5d                   	pop    %rbp
  402056:	41 5c                	pop    %r12
  402058:	c3                   	retq   

0000000000402059 <rio_writen>:
  402059:	41 55                	push   %r13
  40205b:	41 54                	push   %r12
  40205d:	55                   	push   %rbp
  40205e:	53                   	push   %rbx
  40205f:	48 83 ec 08          	sub    $0x8,%rsp
  402063:	41 89 fc             	mov    %edi,%r12d
  402066:	48 89 f5             	mov    %rsi,%rbp
  402069:	49 89 d5             	mov    %rdx,%r13
  40206c:	48 89 d3             	mov    %rdx,%rbx
  40206f:	eb 06                	jmp    402077 <rio_writen+0x1e>
  402071:	48 29 c3             	sub    %rax,%rbx
  402074:	48 01 c5             	add    %rax,%rbp
  402077:	48 85 db             	test   %rbx,%rbx
  40207a:	74 24                	je     4020a0 <rio_writen+0x47>
  40207c:	48 89 da             	mov    %rbx,%rdx
  40207f:	48 89 ee             	mov    %rbp,%rsi
  402082:	44 89 e7             	mov    %r12d,%edi
  402085:	e8 96 eb ff ff       	callq  400c20 <write@plt>
  40208a:	48 85 c0             	test   %rax,%rax
  40208d:	7f e2                	jg     402071 <rio_writen+0x18>
  40208f:	e8 3c eb ff ff       	callq  400bd0 <__errno_location@plt>
  402094:	83 38 04             	cmpl   $0x4,(%rax)
  402097:	75 15                	jne    4020ae <rio_writen+0x55>
  402099:	b8 00 00 00 00       	mov    $0x0,%eax
  40209e:	eb d1                	jmp    402071 <rio_writen+0x18>
  4020a0:	4c 89 e8             	mov    %r13,%rax
  4020a3:	48 83 c4 08          	add    $0x8,%rsp
  4020a7:	5b                   	pop    %rbx
  4020a8:	5d                   	pop    %rbp
  4020a9:	41 5c                	pop    %r12
  4020ab:	41 5d                	pop    %r13
  4020ad:	c3                   	retq   
  4020ae:	48 c7 c0 ff ff ff ff 	mov    $0xffffffffffffffff,%rax
  4020b5:	eb ec                	jmp    4020a3 <rio_writen+0x4a>

00000000004020b7 <rio_read>:
  4020b7:	41 55                	push   %r13
  4020b9:	41 54                	push   %r12
  4020bb:	55                   	push   %rbp
  4020bc:	53                   	push   %rbx
  4020bd:	48 83 ec 08          	sub    $0x8,%rsp
  4020c1:	48 89 fb             	mov    %rdi,%rbx
  4020c4:	49 89 f5             	mov    %rsi,%r13
  4020c7:	49 89 d4             	mov    %rdx,%r12
  4020ca:	eb 0a                	jmp    4020d6 <rio_read+0x1f>
  4020cc:	e8 ff ea ff ff       	callq  400bd0 <__errno_location@plt>
  4020d1:	83 38 04             	cmpl   $0x4,(%rax)
  4020d4:	75 5a                	jne    402130 <rio_read+0x79>
  4020d6:	8b 6b 04             	mov    0x4(%rbx),%ebp
  4020d9:	85 ed                	test   %ebp,%ebp
  4020db:	7f 22                	jg     4020ff <rio_read+0x48>
  4020dd:	48 8d 6b 10          	lea    0x10(%rbx),%rbp
  4020e1:	ba 00 20 00 00       	mov    $0x2000,%edx
  4020e6:	48 89 ee             	mov    %rbp,%rsi
  4020e9:	8b 3b                	mov    (%rbx),%edi
  4020eb:	e8 90 eb ff ff       	callq  400c80 <read@plt>
  4020f0:	89 43 04             	mov    %eax,0x4(%rbx)
  4020f3:	85 c0                	test   %eax,%eax
  4020f5:	78 d5                	js     4020cc <rio_read+0x15>
  4020f7:	74 40                	je     402139 <rio_read+0x82>
  4020f9:	48 89 6b 08          	mov    %rbp,0x8(%rbx)
  4020fd:	eb d7                	jmp    4020d6 <rio_read+0x1f>
  4020ff:	89 e8                	mov    %ebp,%eax
  402101:	4c 39 e0             	cmp    %r12,%rax
  402104:	72 03                	jb     402109 <rio_read+0x52>
  402106:	44 89 e5             	mov    %r12d,%ebp
  402109:	4c 63 e5             	movslq %ebp,%r12
  40210c:	48 8b 73 08          	mov    0x8(%rbx),%rsi
  402110:	4c 89 e2             	mov    %r12,%rdx
  402113:	4c 89 ef             	mov    %r13,%rdi
  402116:	e8 85 eb ff ff       	callq  400ca0 <memcpy@plt>
  40211b:	4c 01 63 08          	add    %r12,0x8(%rbx)
  40211f:	29 6b 04             	sub    %ebp,0x4(%rbx)
  402122:	4c 89 e0             	mov    %r12,%rax
  402125:	48 83 c4 08          	add    $0x8,%rsp
  402129:	5b                   	pop    %rbx
  40212a:	5d                   	pop    %rbp
  40212b:	41 5c                	pop    %r12
  40212d:	41 5d                	pop    %r13
  40212f:	c3                   	retq   
  402130:	48 c7 c0 ff ff ff ff 	mov    $0xffffffffffffffff,%rax
  402137:	eb ec                	jmp    402125 <rio_read+0x6e>
  402139:	b8 00 00 00 00       	mov    $0x0,%eax
  40213e:	eb e5                	jmp    402125 <rio_read+0x6e>

0000000000402140 <rio_readlineb>:
  402140:	41 55                	push   %r13
  402142:	41 54                	push   %r12
  402144:	55                   	push   %rbp
  402145:	53                   	push   %rbx
  402146:	48 83 ec 18          	sub    $0x18,%rsp
  40214a:	49 89 fd             	mov    %rdi,%r13
  40214d:	48 89 f5             	mov    %rsi,%rbp
  402150:	49 89 d4             	mov    %rdx,%r12
  402153:	bb 01 00 00 00       	mov    $0x1,%ebx
  402158:	4c 39 e3             	cmp    %r12,%rbx
  40215b:	73 44                	jae    4021a1 <rio_readlineb+0x61>
  40215d:	ba 01 00 00 00       	mov    $0x1,%edx
  402162:	48 8d 74 24 0f       	lea    0xf(%rsp),%rsi
  402167:	4c 89 ef             	mov    %r13,%rdi
  40216a:	e8 48 ff ff ff       	callq  4020b7 <rio_read>
  40216f:	83 f8 01             	cmp    $0x1,%eax
  402172:	75 19                	jne    40218d <rio_readlineb+0x4d>
  402174:	48 8d 55 01          	lea    0x1(%rbp),%rdx
  402178:	0f b6 44 24 0f       	movzbl 0xf(%rsp),%eax
  40217d:	88 45 00             	mov    %al,0x0(%rbp)
  402180:	3c 0a                	cmp    $0xa,%al
  402182:	74 1a                	je     40219e <rio_readlineb+0x5e>
  402184:	48 83 c3 01          	add    $0x1,%rbx
  402188:	48 89 d5             	mov    %rdx,%rbp
  40218b:	eb cb                	jmp    402158 <rio_readlineb+0x18>
  40218d:	85 c0                	test   %eax,%eax
  40218f:	75 22                	jne    4021b3 <rio_readlineb+0x73>
  402191:	48 83 fb 01          	cmp    $0x1,%rbx
  402195:	75 0a                	jne    4021a1 <rio_readlineb+0x61>
  402197:	b8 00 00 00 00       	mov    $0x0,%eax
  40219c:	eb 0a                	jmp    4021a8 <rio_readlineb+0x68>
  40219e:	48 89 d5             	mov    %rdx,%rbp
  4021a1:	c6 45 00 00          	movb   $0x0,0x0(%rbp)
  4021a5:	48 89 d8             	mov    %rbx,%rax
  4021a8:	48 83 c4 18          	add    $0x18,%rsp
  4021ac:	5b                   	pop    %rbx
  4021ad:	5d                   	pop    %rbp
  4021ae:	41 5c                	pop    %r12
  4021b0:	41 5d                	pop    %r13
  4021b2:	c3                   	retq   
  4021b3:	48 c7 c0 ff ff ff ff 	mov    $0xffffffffffffffff,%rax
  4021ba:	eb ec                	jmp    4021a8 <rio_readlineb+0x68>

00000000004021bc <submitr>:
  4021bc:	41 57                	push   %r15
  4021be:	41 56                	push   %r14
  4021c0:	41 55                	push   %r13
  4021c2:	41 54                	push   %r12
  4021c4:	55                   	push   %rbp
  4021c5:	53                   	push   %rbx
  4021c6:	48 81 ec 48 a0 00 00 	sub    $0xa048,%rsp
  4021cd:	49 89 fc             	mov    %rdi,%r12
  4021d0:	89 74 24 04          	mov    %esi,0x4(%rsp)
  4021d4:	49 89 d7             	mov    %rdx,%r15
  4021d7:	49 89 ce             	mov    %rcx,%r14
  4021da:	4c 89 44 24 08       	mov    %r8,0x8(%rsp)
  4021df:	4d 89 cd             	mov    %r9,%r13
  4021e2:	48 8b ac 24 80 a0 00 	mov    0xa080(%rsp),%rbp
  4021e9:	00 
  4021ea:	c7 84 24 1c 20 00 00 	movl   $0x0,0x201c(%rsp)
  4021f1:	00 00 00 00 
  4021f5:	ba 00 00 00 00       	mov    $0x0,%edx
  4021fa:	be 01 00 00 00       	mov    $0x1,%esi
  4021ff:	bf 02 00 00 00       	mov    $0x2,%edi
  402204:	e8 b7 eb ff ff       	callq  400dc0 <socket@plt>
  402209:	85 c0                	test   %eax,%eax
  40220b:	0f 88 cd 01 00 00    	js     4023de <submitr+0x222>
  402211:	89 c3                	mov    %eax,%ebx
  402213:	4c 89 e7             	mov    %r12,%rdi
  402216:	e8 a5 ea ff ff       	callq  400cc0 <gethostbyname@plt>
  40221b:	48 85 c0             	test   %rax,%rax
  40221e:	0f 84 09 02 00 00    	je     40242d <submitr+0x271>
  402224:	48 c7 84 24 32 a0 00 	movq   $0x0,0xa032(%rsp)
  40222b:	00 00 00 00 00 
  402230:	c7 84 24 3a a0 00 00 	movl   $0x0,0xa03a(%rsp)
  402237:	00 00 00 00 
  40223b:	66 c7 84 24 3e a0 00 	movw   $0x0,0xa03e(%rsp)
  402242:	00 00 00 
  402245:	66 c7 84 24 30 a0 00 	movw   $0x2,0xa030(%rsp)
  40224c:	00 02 00 
  40224f:	48 8b 48 18          	mov    0x18(%rax),%rcx
  402253:	48 63 50 14          	movslq 0x14(%rax),%rdx
  402257:	48 8d bc 24 34 a0 00 	lea    0xa034(%rsp),%rdi
  40225e:	00 
  40225f:	48 8b 31             	mov    (%rcx),%rsi
  402262:	e8 d9 ea ff ff       	callq  400d40 <memmove@plt>
  402267:	0f b7 44 24 04       	movzwl 0x4(%rsp),%eax
  40226c:	66 c1 c8 08          	ror    $0x8,%ax
  402270:	66 89 84 24 32 a0 00 	mov    %ax,0xa032(%rsp)
  402277:	00 
  402278:	ba 10 00 00 00       	mov    $0x10,%edx
  40227d:	48 8d b4 24 30 a0 00 	lea    0xa030(%rsp),%rsi
  402284:	00 
  402285:	89 df                	mov    %ebx,%edi
  402287:	e8 24 eb ff ff       	callq  400db0 <connect@plt>
  40228c:	85 c0                	test   %eax,%eax
  40228e:	0f 88 01 02 00 00    	js     402495 <submitr+0x2d9>
  402294:	48 c7 c6 ff ff ff ff 	mov    $0xffffffffffffffff,%rsi
  40229b:	b8 00 00 00 00       	mov    $0x0,%eax
  4022a0:	48 89 f1             	mov    %rsi,%rcx
  4022a3:	4c 89 ef             	mov    %r13,%rdi
  4022a6:	f2 ae                	repnz scas %es:(%rdi),%al
  4022a8:	48 89 ca             	mov    %rcx,%rdx
  4022ab:	48 f7 d2             	not    %rdx
  4022ae:	48 89 f1             	mov    %rsi,%rcx
  4022b1:	4c 89 ff             	mov    %r15,%rdi
  4022b4:	f2 ae                	repnz scas %es:(%rdi),%al
  4022b6:	48 f7 d1             	not    %rcx
  4022b9:	49 89 c8             	mov    %rcx,%r8
  4022bc:	48 89 f1             	mov    %rsi,%rcx
  4022bf:	4c 89 f7             	mov    %r14,%rdi
  4022c2:	f2 ae                	repnz scas %es:(%rdi),%al
  4022c4:	48 f7 d1             	not    %rcx
  4022c7:	4d 8d 44 08 fe       	lea    -0x2(%r8,%rcx,1),%r8
  4022cc:	48 89 f1             	mov    %rsi,%rcx
  4022cf:	48 8b 7c 24 08       	mov    0x8(%rsp),%rdi
  4022d4:	f2 ae                	repnz scas %es:(%rdi),%al
  4022d6:	48 89 c8             	mov    %rcx,%rax
  4022d9:	48 f7 d0             	not    %rax
  4022dc:	49 8d 4c 00 ff       	lea    -0x1(%r8,%rax,1),%rcx
  4022e1:	48 8d 44 52 fd       	lea    -0x3(%rdx,%rdx,2),%rax
  4022e6:	48 8d 84 01 80 00 00 	lea    0x80(%rcx,%rax,1),%rax
  4022ed:	00 
  4022ee:	48 3d 00 20 00 00    	cmp    $0x2000,%rax
  4022f4:	0f 87 f5 01 00 00    	ja     4024ef <submitr+0x333>
  4022fa:	48 8d b4 24 20 40 00 	lea    0x4020(%rsp),%rsi
  402301:	00 
  402302:	b9 00 04 00 00       	mov    $0x400,%ecx
  402307:	b8 00 00 00 00       	mov    $0x0,%eax
  40230c:	48 89 f7             	mov    %rsi,%rdi
  40230f:	f3 48 ab             	rep stos %rax,%es:(%rdi)
  402312:	4c 89 ef             	mov    %r13,%rdi
  402315:	e8 62 fc ff ff       	callq  401f7c <urlencode>
  40231a:	85 c0                	test   %eax,%eax
  40231c:	0f 88 40 02 00 00    	js     402562 <submitr+0x3a6>
  402322:	4c 8d ac 24 20 60 00 	lea    0x6020(%rsp),%r13
  402329:	00 
  40232a:	4d 89 e1             	mov    %r12,%r9
  40232d:	4c 8d 84 24 20 40 00 	lea    0x4020(%rsp),%r8
  402334:	00 
  402335:	4c 89 f9             	mov    %r15,%rcx
  402338:	4c 89 f2             	mov    %r14,%rdx
  40233b:	be 98 33 40 00       	mov    $0x403398,%esi
  402340:	4c 89 ef             	mov    %r13,%rdi
  402343:	b8 00 00 00 00       	mov    $0x0,%eax
  402348:	e8 43 ea ff ff       	callq  400d90 <sprintf@plt>
  40234d:	48 c7 c1 ff ff ff ff 	mov    $0xffffffffffffffff,%rcx
  402354:	b8 00 00 00 00       	mov    $0x0,%eax
  402359:	4c 89 ef             	mov    %r13,%rdi
  40235c:	f2 ae                	repnz scas %es:(%rdi),%al
  40235e:	48 89 ca             	mov    %rcx,%rdx
  402361:	48 f7 d2             	not    %rdx
  402364:	48 8d 52 ff          	lea    -0x1(%rdx),%rdx
  402368:	4c 89 ee             	mov    %r13,%rsi
  40236b:	89 df                	mov    %ebx,%edi
  40236d:	e8 e7 fc ff ff       	callq  402059 <rio_writen>
  402372:	48 85 c0             	test   %rax,%rax
  402375:	0f 88 72 02 00 00    	js     4025ed <submitr+0x431>
  40237b:	89 de                	mov    %ebx,%esi
  40237d:	48 8d bc 24 20 80 00 	lea    0x8020(%rsp),%rdi
  402384:	00 
  402385:	e8 b7 fb ff ff       	callq  401f41 <rio_readinitb>
  40238a:	ba 00 20 00 00       	mov    $0x2000,%edx
  40238f:	48 8d b4 24 20 60 00 	lea    0x6020(%rsp),%rsi
  402396:	00 
  402397:	48 8d bc 24 20 80 00 	lea    0x8020(%rsp),%rdi
  40239e:	00 
  40239f:	e8 9c fd ff ff       	callq  402140 <rio_readlineb>
  4023a4:	48 85 c0             	test   %rax,%rax
  4023a7:	0f 8e af 02 00 00    	jle    40265c <submitr+0x4a0>
  4023ad:	4c 8d 44 24 10       	lea    0x10(%rsp),%r8
  4023b2:	48 8d 8c 24 1c 20 00 	lea    0x201c(%rsp),%rcx
  4023b9:	00 
  4023ba:	48 8d 94 24 20 20 00 	lea    0x2020(%rsp),%rdx
  4023c1:	00 
  4023c2:	be 0f 34 40 00       	mov    $0x40340f,%esi
  4023c7:	48 8d bc 24 20 60 00 	lea    0x6020(%rsp),%rdi
  4023ce:	00 
  4023cf:	b8 00 00 00 00       	mov    $0x0,%eax
  4023d4:	e8 47 e9 ff ff       	callq  400d20 <__isoc99_sscanf@plt>
  4023d9:	e9 a7 03 00 00       	jmpq   402785 <submitr+0x5c9>
  4023de:	48 b8 45 72 72 6f 72 	mov    $0x43203a726f727245,%rax
  4023e5:	3a 20 43 
  4023e8:	48 ba 6c 69 65 6e 74 	mov    $0x6e7520746e65696c,%rdx
  4023ef:	20 75 6e 
  4023f2:	48 89 45 00          	mov    %rax,0x0(%rbp)
  4023f6:	48 89 55 08          	mov    %rdx,0x8(%rbp)
  4023fa:	48 b8 61 62 6c 65 20 	mov    $0x206f7420656c6261,%rax
  402401:	74 6f 20 
  402404:	48 ba 63 72 65 61 74 	mov    $0x7320657461657263,%rdx
  40240b:	65 20 73 
  40240e:	48 89 45 10          	mov    %rax,0x10(%rbp)
  402412:	48 89 55 18          	mov    %rdx,0x18(%rbp)
  402416:	c7 45 20 6f 63 6b 65 	movl   $0x656b636f,0x20(%rbp)
  40241d:	66 c7 45 24 74 00    	movw   $0x74,0x24(%rbp)
  402423:	b8 ff ff ff ff       	mov    $0xffffffff,%eax
  402428:	e9 1f 03 00 00       	jmpq   40274c <submitr+0x590>
  40242d:	48 b8 45 72 72 6f 72 	mov    $0x44203a726f727245,%rax
  402434:	3a 20 44 
  402437:	48 ba 4e 53 20 69 73 	mov    $0x6e7520736920534e,%rdx
  40243e:	20 75 6e 
  402441:	48 89 45 00          	mov    %rax,0x0(%rbp)
  402445:	48 89 55 08          	mov    %rdx,0x8(%rbp)
  402449:	48 b8 61 62 6c 65 20 	mov    $0x206f7420656c6261,%rax
  402450:	74 6f 20 
  402453:	48 ba 72 65 73 6f 6c 	mov    $0x2065766c6f736572,%rdx
  40245a:	76 65 20 
  40245d:	48 89 45 10          	mov    %rax,0x10(%rbp)
  402461:	48 89 55 18          	mov    %rdx,0x18(%rbp)
  402465:	48 b8 73 65 72 76 65 	mov    $0x6120726576726573,%rax
  40246c:	72 20 61 
  40246f:	48 89 45 20          	mov    %rax,0x20(%rbp)
  402473:	c7 45 28 64 64 72 65 	movl   $0x65726464,0x28(%rbp)
  40247a:	66 c7 45 2c 73 73    	movw   $0x7373,0x2c(%rbp)
  402480:	c6 45 2e 00          	movb   $0x0,0x2e(%rbp)
  402484:	89 df                	mov    %ebx,%edi
  402486:	e8 e5 e7 ff ff       	callq  400c70 <close@plt>
  40248b:	b8 ff ff ff ff       	mov    $0xffffffff,%eax
  402490:	e9 b7 02 00 00       	jmpq   40274c <submitr+0x590>
  402495:	48 b8 45 72 72 6f 72 	mov    $0x55203a726f727245,%rax
  40249c:	3a 20 55 
  40249f:	48 ba 6e 61 62 6c 65 	mov    $0x6f7420656c62616e,%rdx
  4024a6:	20 74 6f 
  4024a9:	48 89 45 00          	mov    %rax,0x0(%rbp)
  4024ad:	48 89 55 08          	mov    %rdx,0x8(%rbp)
  4024b1:	48 b8 20 63 6f 6e 6e 	mov    $0x7463656e6e6f6320,%rax
  4024b8:	65 63 74 
  4024bb:	48 ba 20 74 6f 20 74 	mov    $0x20656874206f7420,%rdx
  4024c2:	68 65 20 
  4024c5:	48 89 45 10          	mov    %rax,0x10(%rbp)
  4024c9:	48 89 55 18          	mov    %rdx,0x18(%rbp)
  4024cd:	c7 45 20 73 65 72 76 	movl   $0x76726573,0x20(%rbp)
  4024d4:	66 c7 45 24 65 72    	movw   $0x7265,0x24(%rbp)
  4024da:	c6 45 26 00          	movb   $0x0,0x26(%rbp)
  4024de:	89 df                	mov    %ebx,%edi
  4024e0:	e8 8b e7 ff ff       	callq  400c70 <close@plt>
  4024e5:	b8 ff ff ff ff       	mov    $0xffffffff,%eax
  4024ea:	e9 5d 02 00 00       	jmpq   40274c <submitr+0x590>
  4024ef:	48 b8 45 72 72 6f 72 	mov    $0x52203a726f727245,%rax
  4024f6:	3a 20 52 
  4024f9:	48 ba 65 73 75 6c 74 	mov    $0x747320746c757365,%rdx
  402500:	20 73 74 
  402503:	48 89 45 00          	mov    %rax,0x0(%rbp)
  402507:	48 89 55 08          	mov    %rdx,0x8(%rbp)
  40250b:	48 b8 72 69 6e 67 20 	mov    $0x6f6f7420676e6972,%rax
  402512:	74 6f 6f 
  402515:	48 ba 20 6c 61 72 67 	mov    $0x202e656772616c20,%rdx
  40251c:	65 2e 20 
  40251f:	48 89 45 10          	mov    %rax,0x10(%rbp)
  402523:	48 89 55 18          	mov    %rdx,0x18(%rbp)
  402527:	48 b8 49 6e 63 72 65 	mov    $0x6573616572636e49,%rax
  40252e:	61 73 65 
  402531:	48 ba 20 53 55 42 4d 	mov    $0x5254494d42555320,%rdx
  402538:	49 54 52 
  40253b:	48 89 45 20          	mov    %rax,0x20(%rbp)
  40253f:	48 89 55 28          	mov    %rdx,0x28(%rbp)
  402543:	48 b8 5f 4d 41 58 42 	mov    $0x46554258414d5f,%rax
  40254a:	55 46 00 
  40254d:	48 89 45 30          	mov    %rax,0x30(%rbp)
  402551:	89 df                	mov    %ebx,%edi
  402553:	e8 18 e7 ff ff       	callq  400c70 <close@plt>
  402558:	b8 ff ff ff ff       	mov    $0xffffffff,%eax
  40255d:	e9 ea 01 00 00       	jmpq   40274c <submitr+0x590>
  402562:	48 b8 45 72 72 6f 72 	mov    $0x52203a726f727245,%rax
  402569:	3a 20 52 
  40256c:	48 ba 65 73 75 6c 74 	mov    $0x747320746c757365,%rdx
  402573:	20 73 74 
  402576:	48 89 45 00          	mov    %rax,0x0(%rbp)
  40257a:	48 89 55 08          	mov    %rdx,0x8(%rbp)
  40257e:	48 b8 72 69 6e 67 20 	mov    $0x6e6f6320676e6972,%rax
  402585:	63 6f 6e 
  402588:	48 ba 74 61 69 6e 73 	mov    $0x6e6120736e696174,%rdx
  40258f:	20 61 6e 
  402592:	48 89 45 10          	mov    %rax,0x10(%rbp)
  402596:	48 89 55 18          	mov    %rdx,0x18(%rbp)
  40259a:	48 b8 20 69 6c 6c 65 	mov    $0x6c6167656c6c6920,%rax
  4025a1:	67 61 6c 
  4025a4:	48 ba 20 6f 72 20 75 	mov    $0x72706e7520726f20,%rdx
  4025ab:	6e 70 72 
  4025ae:	48 89 45 20          	mov    %rax,0x20(%rbp)
  4025b2:	48 89 55 28          	mov    %rdx,0x28(%rbp)
  4025b6:	48 b8 69 6e 74 61 62 	mov    $0x20656c6261746e69,%rax
  4025bd:	6c 65 20 
  4025c0:	48 ba 63 68 61 72 61 	mov    $0x6574636172616863,%rdx
  4025c7:	63 74 65 
  4025ca:	48 89 45 30          	mov    %rax,0x30(%rbp)
  4025ce:	48 89 55 38          	mov    %rdx,0x38(%rbp)
  4025d2:	66 c7 45 40 72 2e    	movw   $0x2e72,0x40(%rbp)
  4025d8:	c6 45 42 00          	movb   $0x0,0x42(%rbp)
  4025dc:	89 df                	mov    %ebx,%edi
  4025de:	e8 8d e6 ff ff       	callq  400c70 <close@plt>
  4025e3:	b8 ff ff ff ff       	mov    $0xffffffff,%eax
  4025e8:	e9 5f 01 00 00       	jmpq   40274c <submitr+0x590>
  4025ed:	48 b8 45 72 72 6f 72 	mov    $0x43203a726f727245,%rax
  4025f4:	3a 20 43 
  4025f7:	48 ba 6c 69 65 6e 74 	mov    $0x6e7520746e65696c,%rdx
  4025fe:	20 75 6e 
  402601:	48 89 45 00          	mov    %rax,0x0(%rbp)
  402605:	48 89 55 08          	mov    %rdx,0x8(%rbp)
  402609:	48 b8 61 62 6c 65 20 	mov    $0x206f7420656c6261,%rax
  402610:	74 6f 20 
  402613:	48 ba 77 72 69 74 65 	mov    $0x6f74206574697277,%rdx
  40261a:	20 74 6f 
  40261d:	48 89 45 10          	mov    %rax,0x10(%rbp)
  402621:	48 89 55 18          	mov    %rdx,0x18(%rbp)
  402625:	48 b8 20 74 68 65 20 	mov    $0x7365722065687420,%rax
  40262c:	72 65 73 
  40262f:	48 ba 75 6c 74 20 73 	mov    $0x7672657320746c75,%rdx
  402636:	65 72 76 
  402639:	48 89 45 20          	mov    %rax,0x20(%rbp)
  40263d:	48 89 55 28          	mov    %rdx,0x28(%rbp)
  402641:	66 c7 45 30 65 72    	movw   $0x7265,0x30(%rbp)
  402647:	c6 45 32 00          	movb   $0x0,0x32(%rbp)
  40264b:	89 df                	mov    %ebx,%edi
  40264d:	e8 1e e6 ff ff       	callq  400c70 <close@plt>
  402652:	b8 ff ff ff ff       	mov    $0xffffffff,%eax
  402657:	e9 f0 00 00 00       	jmpq   40274c <submitr+0x590>
  40265c:	48 b8 45 72 72 6f 72 	mov    $0x43203a726f727245,%rax
  402663:	3a 20 43 
  402666:	48 ba 6c 69 65 6e 74 	mov    $0x6e7520746e65696c,%rdx
  40266d:	20 75 6e 
  402670:	48 89 45 00          	mov    %rax,0x0(%rbp)
  402674:	48 89 55 08          	mov    %rdx,0x8(%rbp)
  402678:	48 b8 61 62 6c 65 20 	mov    $0x206f7420656c6261,%rax
  40267f:	74 6f 20 
  402682:	48 ba 72 65 61 64 20 	mov    $0x7269662064616572,%rdx
  402689:	66 69 72 
  40268c:	48 89 45 10          	mov    %rax,0x10(%rbp)
  402690:	48 89 55 18          	mov    %rdx,0x18(%rbp)
  402694:	48 b8 73 74 20 68 65 	mov    $0x6564616568207473,%rax
  40269b:	61 64 65 
  40269e:	48 ba 72 20 66 72 6f 	mov    $0x72206d6f72662072,%rdx
  4026a5:	6d 20 72 
  4026a8:	48 89 45 20          	mov    %rax,0x20(%rbp)
  4026ac:	48 89 55 28          	mov    %rdx,0x28(%rbp)
  4026b0:	48 b8 65 73 75 6c 74 	mov    $0x657320746c757365,%rax
  4026b7:	20 73 65 
  4026ba:	48 89 45 30          	mov    %rax,0x30(%rbp)
  4026be:	c7 45 38 72 76 65 72 	movl   $0x72657672,0x38(%rbp)
  4026c5:	c6 45 3c 00          	movb   $0x0,0x3c(%rbp)
  4026c9:	89 df                	mov    %ebx,%edi
  4026cb:	e8 a0 e5 ff ff       	callq  400c70 <close@plt>
  4026d0:	b8 ff ff ff ff       	mov    $0xffffffff,%eax
  4026d5:	eb 75                	jmp    40274c <submitr+0x590>
  4026d7:	48 b8 45 72 72 6f 72 	mov    $0x43203a726f727245,%rax
  4026de:	3a 20 43 
  4026e1:	48 ba 6c 69 65 6e 74 	mov    $0x6e7520746e65696c,%rdx
  4026e8:	20 75 6e 
  4026eb:	48 89 45 00          	mov    %rax,0x0(%rbp)
  4026ef:	48 89 55 08          	mov    %rdx,0x8(%rbp)
  4026f3:	48 b8 61 62 6c 65 20 	mov    $0x206f7420656c6261,%rax
  4026fa:	74 6f 20 
  4026fd:	48 ba 72 65 61 64 20 	mov    $0x6165682064616572,%rdx
  402704:	68 65 61 
  402707:	48 89 45 10          	mov    %rax,0x10(%rbp)
  40270b:	48 89 55 18          	mov    %rdx,0x18(%rbp)
  40270f:	48 b8 64 65 72 73 20 	mov    $0x6f72662073726564,%rax
  402716:	66 72 6f 
  402719:	48 ba 6d 20 74 68 65 	mov    $0x657220656874206d,%rdx
  402720:	20 72 65 
  402723:	48 89 45 20          	mov    %rax,0x20(%rbp)
  402727:	48 89 55 28          	mov    %rdx,0x28(%rbp)
  40272b:	48 b8 73 75 6c 74 20 	mov    $0x72657320746c7573,%rax
  402732:	73 65 72 
  402735:	48 89 45 30          	mov    %rax,0x30(%rbp)
  402739:	c7 45 38 76 65 72 00 	movl   $0x726576,0x38(%rbp)
  402740:	89 df                	mov    %ebx,%edi
  402742:	e8 29 e5 ff ff       	callq  400c70 <close@plt>
  402747:	b8 ff ff ff ff       	mov    $0xffffffff,%eax
  40274c:	48 81 c4 48 a0 00 00 	add    $0xa048,%rsp
  402753:	5b                   	pop    %rbx
  402754:	5d                   	pop    %rbp
  402755:	41 5c                	pop    %r12
  402757:	41 5d                	pop    %r13
  402759:	41 5e                	pop    %r14
  40275b:	41 5f                	pop    %r15
  40275d:	c3                   	retq   
  40275e:	85 c0                	test   %eax,%eax
  402760:	74 47                	je     4027a9 <submitr+0x5ed>
  402762:	ba 00 20 00 00       	mov    $0x2000,%edx
  402767:	48 8d b4 24 20 60 00 	lea    0x6020(%rsp),%rsi
  40276e:	00 
  40276f:	48 8d bc 24 20 80 00 	lea    0x8020(%rsp),%rdi
  402776:	00 
  402777:	e8 c4 f9 ff ff       	callq  402140 <rio_readlineb>
  40277c:	48 85 c0             	test   %rax,%rax
  40277f:	0f 8e 52 ff ff ff    	jle    4026d7 <submitr+0x51b>
  402785:	0f b6 84 24 20 60 00 	movzbl 0x6020(%rsp),%eax
  40278c:	00 
  40278d:	83 e8 0d             	sub    $0xd,%eax
  402790:	75 cc                	jne    40275e <submitr+0x5a2>
  402792:	0f b6 84 24 21 60 00 	movzbl 0x6021(%rsp),%eax
  402799:	00 
  40279a:	83 e8 0a             	sub    $0xa,%eax
  40279d:	75 bf                	jne    40275e <submitr+0x5a2>
  40279f:	0f b6 84 24 22 60 00 	movzbl 0x6022(%rsp),%eax
  4027a6:	00 
  4027a7:	eb b5                	jmp    40275e <submitr+0x5a2>
  4027a9:	ba 00 20 00 00       	mov    $0x2000,%edx
  4027ae:	48 8d b4 24 20 60 00 	lea    0x6020(%rsp),%rsi
  4027b5:	00 
  4027b6:	48 8d bc 24 20 80 00 	lea    0x8020(%rsp),%rdi
  4027bd:	00 
  4027be:	e8 7d f9 ff ff       	callq  402140 <rio_readlineb>
  4027c3:	48 85 c0             	test   %rax,%rax
  4027c6:	7e 5a                	jle    402822 <submitr+0x666>
  4027c8:	8b 94 24 1c 20 00 00 	mov    0x201c(%rsp),%edx
  4027cf:	81 fa c8 00 00 00    	cmp    $0xc8,%edx
  4027d5:	0f 85 cb 00 00 00    	jne    4028a6 <submitr+0x6ea>
  4027db:	48 8d b4 24 20 60 00 	lea    0x6020(%rsp),%rsi
  4027e2:	00 
  4027e3:	48 89 ef             	mov    %rbp,%rdi
  4027e6:	e8 15 e4 ff ff       	callq  400c00 <strcpy@plt>
  4027eb:	89 df                	mov    %ebx,%edi
  4027ed:	e8 7e e4 ff ff       	callq  400c70 <close@plt>
  4027f2:	0f b6 55 00          	movzbl 0x0(%rbp),%edx
  4027f6:	83 ea 4f             	sub    $0x4f,%edx
  4027f9:	0f 85 cf 00 00 00    	jne    4028ce <submitr+0x712>
  4027ff:	0f b6 45 01          	movzbl 0x1(%rbp),%eax
  402803:	83 e8 4b             	sub    $0x4b,%eax
  402806:	0f 85 c4 00 00 00    	jne    4028d0 <submitr+0x714>
  40280c:	0f b6 45 02          	movzbl 0x2(%rbp),%eax
  402810:	83 e8 0a             	sub    $0xa,%eax
  402813:	0f 85 b7 00 00 00    	jne    4028d0 <submitr+0x714>
  402819:	0f b6 45 03          	movzbl 0x3(%rbp),%eax
  40281d:	e9 ae 00 00 00       	jmpq   4028d0 <submitr+0x714>
  402822:	48 b8 45 72 72 6f 72 	mov    $0x43203a726f727245,%rax
  402829:	3a 20 43 
  40282c:	48 ba 6c 69 65 6e 74 	mov    $0x6e7520746e65696c,%rdx
  402833:	20 75 6e 
  402836:	48 89 45 00          	mov    %rax,0x0(%rbp)
  40283a:	48 89 55 08          	mov    %rdx,0x8(%rbp)
  40283e:	48 b8 61 62 6c 65 20 	mov    $0x206f7420656c6261,%rax
  402845:	74 6f 20 
  402848:	48 ba 72 65 61 64 20 	mov    $0x6174732064616572,%rdx
  40284f:	73 74 61 
  402852:	48 89 45 10          	mov    %rax,0x10(%rbp)
  402856:	48 89 55 18          	mov    %rdx,0x18(%rbp)
  40285a:	48 b8 74 75 73 20 6d 	mov    $0x7373656d20737574,%rax
  402861:	65 73 73 
  402864:	48 ba 61 67 65 20 66 	mov    $0x6d6f726620656761,%rdx
  40286b:	72 6f 6d 
  40286e:	48 89 45 20          	mov    %rax,0x20(%rbp)
  402872:	48 89 55 28          	mov    %rdx,0x28(%rbp)
  402876:	48 b8 20 72 65 73 75 	mov    $0x20746c7573657220,%rax
  40287d:	6c 74 20 
  402880:	48 89 45 30          	mov    %rax,0x30(%rbp)
  402884:	c7 45 38 73 65 72 76 	movl   $0x76726573,0x38(%rbp)
  40288b:	66 c7 45 3c 65 72    	movw   $0x7265,0x3c(%rbp)
  402891:	c6 45 3e 00          	movb   $0x0,0x3e(%rbp)
  402895:	89 df                	mov    %ebx,%edi
  402897:	e8 d4 e3 ff ff       	callq  400c70 <close@plt>
  40289c:	b8 ff ff ff ff       	mov    $0xffffffff,%eax
  4028a1:	e9 a6 fe ff ff       	jmpq   40274c <submitr+0x590>
  4028a6:	48 8d 4c 24 10       	lea    0x10(%rsp),%rcx
  4028ab:	be d8 33 40 00       	mov    $0x4033d8,%esi
  4028b0:	48 89 ef             	mov    %rbp,%rdi
  4028b3:	b8 00 00 00 00       	mov    $0x0,%eax
  4028b8:	e8 d3 e4 ff ff       	callq  400d90 <sprintf@plt>
  4028bd:	89 df                	mov    %ebx,%edi
  4028bf:	e8 ac e3 ff ff       	callq  400c70 <close@plt>
  4028c4:	b8 ff ff ff ff       	mov    $0xffffffff,%eax
  4028c9:	e9 7e fe ff ff       	jmpq   40274c <submitr+0x590>
  4028ce:	89 d0                	mov    %edx,%eax
  4028d0:	85 c0                	test   %eax,%eax
  4028d2:	0f 84 74 fe ff ff    	je     40274c <submitr+0x590>
  4028d8:	bf 20 34 40 00       	mov    $0x403420,%edi
  4028dd:	b9 05 00 00 00       	mov    $0x5,%ecx
  4028e2:	48 89 ee             	mov    %rbp,%rsi
  4028e5:	f3 a6                	repz cmpsb %es:(%rdi),%ds:(%rsi)
  4028e7:	0f 97 c0             	seta   %al
  4028ea:	1c 00                	sbb    $0x0,%al
  4028ec:	0f be c0             	movsbl %al,%eax
  4028ef:	85 c0                	test   %eax,%eax
  4028f1:	0f 84 55 fe ff ff    	je     40274c <submitr+0x590>
  4028f7:	85 d2                	test   %edx,%edx
  4028f9:	75 0d                	jne    402908 <submitr+0x74c>
  4028fb:	0f b6 55 01          	movzbl 0x1(%rbp),%edx
  4028ff:	83 ea 4b             	sub    $0x4b,%edx
  402902:	75 04                	jne    402908 <submitr+0x74c>
  402904:	0f b6 55 02          	movzbl 0x2(%rbp),%edx
  402908:	85 d2                	test   %edx,%edx
  40290a:	75 07                	jne    402913 <submitr+0x757>
  40290c:	89 d0                	mov    %edx,%eax
  40290e:	e9 39 fe ff ff       	jmpq   40274c <submitr+0x590>
  402913:	b8 ff ff ff ff       	mov    $0xffffffff,%eax
  402918:	e9 2f fe ff ff       	jmpq   40274c <submitr+0x590>

000000000040291d <init_timeout>:
  40291d:	85 ff                	test   %edi,%edi
  40291f:	74 24                	je     402945 <init_timeout+0x28>
  402921:	53                   	push   %rbx
  402922:	89 fb                	mov    %edi,%ebx
  402924:	78 18                	js     40293e <init_timeout+0x21>
  402926:	be 53 1f 40 00       	mov    $0x401f53,%esi
  40292b:	bf 0e 00 00 00       	mov    $0xe,%edi
  402930:	e8 7b e3 ff ff       	callq  400cb0 <signal@plt>
  402935:	89 df                	mov    %ebx,%edi
  402937:	e8 24 e3 ff ff       	callq  400c60 <alarm@plt>
  40293c:	5b                   	pop    %rbx
  40293d:	c3                   	retq   
  40293e:	bb 00 00 00 00       	mov    $0x0,%ebx
  402943:	eb e1                	jmp    402926 <init_timeout+0x9>
  402945:	c3                   	retq   

0000000000402946 <init_driver>:
  402946:	55                   	push   %rbp
  402947:	53                   	push   %rbx
  402948:	48 83 ec 18          	sub    $0x18,%rsp
  40294c:	48 89 fd             	mov    %rdi,%rbp
  40294f:	be 01 00 00 00       	mov    $0x1,%esi
  402954:	bf 0d 00 00 00       	mov    $0xd,%edi
  402959:	e8 52 e3 ff ff       	callq  400cb0 <signal@plt>
  40295e:	be 01 00 00 00       	mov    $0x1,%esi
  402963:	bf 1d 00 00 00       	mov    $0x1d,%edi
  402968:	e8 43 e3 ff ff       	callq  400cb0 <signal@plt>
  40296d:	be 01 00 00 00       	mov    $0x1,%esi
  402972:	bf 1d 00 00 00       	mov    $0x1d,%edi
  402977:	e8 34 e3 ff ff       	callq  400cb0 <signal@plt>
  40297c:	ba 00 00 00 00       	mov    $0x0,%edx
  402981:	be 01 00 00 00       	mov    $0x1,%esi
  402986:	bf 02 00 00 00       	mov    $0x2,%edi
  40298b:	e8 30 e4 ff ff       	callq  400dc0 <socket@plt>
  402990:	85 c0                	test   %eax,%eax
  402992:	0f 88 83 00 00 00    	js     402a1b <init_driver+0xd5>
  402998:	89 c3                	mov    %eax,%ebx
  40299a:	bf 6a 2f 40 00       	mov    $0x402f6a,%edi
  40299f:	e8 1c e3 ff ff       	callq  400cc0 <gethostbyname@plt>
  4029a4:	48 85 c0             	test   %rax,%rax
  4029a7:	0f 84 ba 00 00 00    	je     402a67 <init_driver+0x121>
  4029ad:	48 c7 44 24 02 00 00 	movq   $0x0,0x2(%rsp)
  4029b4:	00 00 
  4029b6:	c7 44 24 0a 00 00 00 	movl   $0x0,0xa(%rsp)
  4029bd:	00 
  4029be:	66 c7 44 24 0e 00 00 	movw   $0x0,0xe(%rsp)
  4029c5:	66 c7 04 24 02 00    	movw   $0x2,(%rsp)
  4029cb:	48 8b 48 18          	mov    0x18(%rax),%rcx
  4029cf:	48 63 50 14          	movslq 0x14(%rax),%rdx
  4029d3:	48 8d 7c 24 04       	lea    0x4(%rsp),%rdi
  4029d8:	48 8b 31             	mov    (%rcx),%rsi
  4029db:	e8 60 e3 ff ff       	callq  400d40 <memmove@plt>
  4029e0:	66 c7 44 24 02 3c 9a 	movw   $0x9a3c,0x2(%rsp)
  4029e7:	ba 10 00 00 00       	mov    $0x10,%edx
  4029ec:	48 89 e6             	mov    %rsp,%rsi
  4029ef:	89 df                	mov    %ebx,%edi
  4029f1:	e8 ba e3 ff ff       	callq  400db0 <connect@plt>
  4029f6:	85 c0                	test   %eax,%eax
  4029f8:	0f 88 d1 00 00 00    	js     402acf <init_driver+0x189>
  4029fe:	89 df                	mov    %ebx,%edi
  402a00:	e8 6b e2 ff ff       	callq  400c70 <close@plt>
  402a05:	66 c7 45 00 4f 4b    	movw   $0x4b4f,0x0(%rbp)
  402a0b:	c6 45 02 00          	movb   $0x0,0x2(%rbp)
  402a0f:	b8 00 00 00 00       	mov    $0x0,%eax
  402a14:	48 83 c4 18          	add    $0x18,%rsp
  402a18:	5b                   	pop    %rbx
  402a19:	5d                   	pop    %rbp
  402a1a:	c3                   	retq   
  402a1b:	48 b8 45 72 72 6f 72 	mov    $0x43203a726f727245,%rax
  402a22:	3a 20 43 
  402a25:	48 ba 6c 69 65 6e 74 	mov    $0x6e7520746e65696c,%rdx
  402a2c:	20 75 6e 
  402a2f:	48 89 45 00          	mov    %rax,0x0(%rbp)
  402a33:	48 89 55 08          	mov    %rdx,0x8(%rbp)
  402a37:	48 b8 61 62 6c 65 20 	mov    $0x206f7420656c6261,%rax
  402a3e:	74 6f 20 
  402a41:	48 ba 63 72 65 61 74 	mov    $0x7320657461657263,%rdx
  402a48:	65 20 73 
  402a4b:	48 89 45 10          	mov    %rax,0x10(%rbp)
  402a4f:	48 89 55 18          	mov    %rdx,0x18(%rbp)
  402a53:	c7 45 20 6f 63 6b 65 	movl   $0x656b636f,0x20(%rbp)
  402a5a:	66 c7 45 24 74 00    	movw   $0x74,0x24(%rbp)
  402a60:	b8 ff ff ff ff       	mov    $0xffffffff,%eax
  402a65:	eb ad                	jmp    402a14 <init_driver+0xce>
  402a67:	48 b8 45 72 72 6f 72 	mov    $0x44203a726f727245,%rax
  402a6e:	3a 20 44 
  402a71:	48 ba 4e 53 20 69 73 	mov    $0x6e7520736920534e,%rdx
  402a78:	20 75 6e 
  402a7b:	48 89 45 00          	mov    %rax,0x0(%rbp)
  402a7f:	48 89 55 08          	mov    %rdx,0x8(%rbp)
  402a83:	48 b8 61 62 6c 65 20 	mov    $0x206f7420656c6261,%rax
  402a8a:	74 6f 20 
  402a8d:	48 ba 72 65 73 6f 6c 	mov    $0x2065766c6f736572,%rdx
  402a94:	76 65 20 
  402a97:	48 89 45 10          	mov    %rax,0x10(%rbp)
  402a9b:	48 89 55 18          	mov    %rdx,0x18(%rbp)
  402a9f:	48 b8 73 65 72 76 65 	mov    $0x6120726576726573,%rax
  402aa6:	72 20 61 
  402aa9:	48 89 45 20          	mov    %rax,0x20(%rbp)
  402aad:	c7 45 28 64 64 72 65 	movl   $0x65726464,0x28(%rbp)
  402ab4:	66 c7 45 2c 73 73    	movw   $0x7373,0x2c(%rbp)
  402aba:	c6 45 2e 00          	movb   $0x0,0x2e(%rbp)
  402abe:	89 df                	mov    %ebx,%edi
  402ac0:	e8 ab e1 ff ff       	callq  400c70 <close@plt>
  402ac5:	b8 ff ff ff ff       	mov    $0xffffffff,%eax
  402aca:	e9 45 ff ff ff       	jmpq   402a14 <init_driver+0xce>
  402acf:	48 b8 45 72 72 6f 72 	mov    $0x55203a726f727245,%rax
  402ad6:	3a 20 55 
  402ad9:	48 ba 6e 61 62 6c 65 	mov    $0x6f7420656c62616e,%rdx
  402ae0:	20 74 6f 
  402ae3:	48 89 45 00          	mov    %rax,0x0(%rbp)
  402ae7:	48 89 55 08          	mov    %rdx,0x8(%rbp)
  402aeb:	48 b8 20 63 6f 6e 6e 	mov    $0x7463656e6e6f6320,%rax
  402af2:	65 63 74 
  402af5:	48 ba 20 74 6f 20 73 	mov    $0x76726573206f7420,%rdx
  402afc:	65 72 76 
  402aff:	48 89 45 10          	mov    %rax,0x10(%rbp)
  402b03:	48 89 55 18          	mov    %rdx,0x18(%rbp)
  402b07:	66 c7 45 20 65 72    	movw   $0x7265,0x20(%rbp)
  402b0d:	c6 45 22 00          	movb   $0x0,0x22(%rbp)
  402b11:	89 df                	mov    %ebx,%edi
  402b13:	e8 58 e1 ff ff       	callq  400c70 <close@plt>
  402b18:	b8 ff ff ff ff       	mov    $0xffffffff,%eax
  402b1d:	e9 f2 fe ff ff       	jmpq   402a14 <init_driver+0xce>

0000000000402b22 <driver_post>:
  402b22:	53                   	push   %rbx
  402b23:	4c 89 cb             	mov    %r9,%rbx
  402b26:	45 85 c0             	test   %r8d,%r8d
  402b29:	75 18                	jne    402b43 <driver_post+0x21>
  402b2b:	48 85 ff             	test   %rdi,%rdi
  402b2e:	74 05                	je     402b35 <driver_post+0x13>
  402b30:	80 3f 00             	cmpb   $0x0,(%rdi)
  402b33:	75 30                	jne    402b65 <driver_post+0x43>
  402b35:	66 c7 03 4f 4b       	movw   $0x4b4f,(%rbx)
  402b3a:	c6 43 02 00          	movb   $0x0,0x2(%rbx)
  402b3e:	44 89 c0             	mov    %r8d,%eax
  402b41:	5b                   	pop    %rbx
  402b42:	c3                   	retq   
  402b43:	48 89 ce             	mov    %rcx,%rsi
  402b46:	bf 25 34 40 00       	mov    $0x403425,%edi
  402b4b:	b8 00 00 00 00       	mov    $0x0,%eax
  402b50:	e8 eb e0 ff ff       	callq  400c40 <printf@plt>
  402b55:	66 c7 03 4f 4b       	movw   $0x4b4f,(%rbx)
  402b5a:	c6 43 02 00          	movb   $0x0,0x2(%rbx)
  402b5e:	b8 00 00 00 00       	mov    $0x0,%eax
  402b63:	eb dc                	jmp    402b41 <driver_post+0x1f>
  402b65:	48 83 ec 08          	sub    $0x8,%rsp
  402b69:	41 51                	push   %r9
  402b6b:	49 89 c9             	mov    %rcx,%r9
  402b6e:	49 89 d0             	mov    %rdx,%r8
  402b71:	48 89 f9             	mov    %rdi,%rcx
  402b74:	48 89 f2             	mov    %rsi,%rdx
  402b77:	be 9a 3c 00 00       	mov    $0x3c9a,%esi
  402b7c:	bf 6a 2f 40 00       	mov    $0x402f6a,%edi
  402b81:	e8 36 f6 ff ff       	callq  4021bc <submitr>
  402b86:	48 83 c4 10          	add    $0x10,%rsp
  402b8a:	eb b5                	jmp    402b41 <driver_post+0x1f>

0000000000402b8c <check>:
  402b8c:	89 f8                	mov    %edi,%eax
  402b8e:	c1 e8 1c             	shr    $0x1c,%eax
  402b91:	74 1d                	je     402bb0 <check+0x24>
  402b93:	b9 00 00 00 00       	mov    $0x0,%ecx
  402b98:	83 f9 1f             	cmp    $0x1f,%ecx
  402b9b:	7f 0d                	jg     402baa <check+0x1e>
  402b9d:	89 f8                	mov    %edi,%eax
  402b9f:	d3 e8                	shr    %cl,%eax
  402ba1:	3c 0a                	cmp    $0xa,%al
  402ba3:	74 11                	je     402bb6 <check+0x2a>
  402ba5:	83 c1 08             	add    $0x8,%ecx
  402ba8:	eb ee                	jmp    402b98 <check+0xc>
  402baa:	b8 01 00 00 00       	mov    $0x1,%eax
  402baf:	c3                   	retq   
  402bb0:	b8 00 00 00 00       	mov    $0x0,%eax
  402bb5:	c3                   	retq   
  402bb6:	b8 00 00 00 00       	mov    $0x0,%eax
  402bbb:	c3                   	retq   

0000000000402bbc <gencookie>:
  402bbc:	53                   	push   %rbx
  402bbd:	83 c7 01             	add    $0x1,%edi
  402bc0:	e8 1b e0 ff ff       	callq  400be0 <srandom@plt>
  402bc5:	e8 36 e1 ff ff       	callq  400d00 <random@plt>
  402bca:	89 c3                	mov    %eax,%ebx
  402bcc:	89 c7                	mov    %eax,%edi
  402bce:	e8 b9 ff ff ff       	callq  402b8c <check>
  402bd3:	85 c0                	test   %eax,%eax
  402bd5:	74 ee                	je     402bc5 <gencookie+0x9>
  402bd7:	89 d8                	mov    %ebx,%eax
  402bd9:	5b                   	pop    %rbx
  402bda:	c3                   	retq   
  402bdb:	0f 1f 44 00 00       	nopl   0x0(%rax,%rax,1)

0000000000402be0 <__libc_csu_fini>:
  402be0:	f3 c3                	repz retq 
  402be2:	66 66 66 66 66 2e 0f 	data32 data32 data32 data32 nopw %cs:0x0(%rax,%rax,1)
  402be9:	1f 84 00 00 00 00 00 

0000000000402bf0 <__libc_csu_init>:
  402bf0:	48 89 6c 24 d8       	mov    %rbp,-0x28(%rsp)
  402bf5:	4c 89 64 24 e0       	mov    %r12,-0x20(%rsp)
  402bfa:	48 8d 2d 1f 22 20 00 	lea    0x20221f(%rip),%rbp        # 604e20 <__init_array_end>
  402c01:	4c 8d 25 10 22 20 00 	lea    0x202210(%rip),%r12        # 604e18 <__frame_dummy_init_array_entry>
  402c08:	4c 89 6c 24 e8       	mov    %r13,-0x18(%rsp)
  402c0d:	4c 89 74 24 f0       	mov    %r14,-0x10(%rsp)
  402c12:	4c 89 7c 24 f8       	mov    %r15,-0x8(%rsp)
  402c17:	48 89 5c 24 d0       	mov    %rbx,-0x30(%rsp)
  402c1c:	48 83 ec 38          	sub    $0x38,%rsp
  402c20:	4c 29 e5             	sub    %r12,%rbp
  402c23:	41 89 fd             	mov    %edi,%r13d
  402c26:	49 89 f6             	mov    %rsi,%r14
  402c29:	48 c1 fd 03          	sar    $0x3,%rbp
  402c2d:	49 89 d7             	mov    %rdx,%r15
  402c30:	e8 63 df ff ff       	callq  400b98 <_init>
  402c35:	48 85 ed             	test   %rbp,%rbp
  402c38:	74 1c                	je     402c56 <__libc_csu_init+0x66>
  402c3a:	31 db                	xor    %ebx,%ebx
  402c3c:	0f 1f 40 00          	nopl   0x0(%rax)
  402c40:	4c 89 fa             	mov    %r15,%rdx
  402c43:	4c 89 f6             	mov    %r14,%rsi
  402c46:	44 89 ef             	mov    %r13d,%edi
  402c49:	41 ff 14 dc          	callq  *(%r12,%rbx,8)
  402c4d:	48 83 c3 01          	add    $0x1,%rbx
  402c51:	48 39 eb             	cmp    %rbp,%rbx
  402c54:	72 ea                	jb     402c40 <__libc_csu_init+0x50>
  402c56:	48 8b 5c 24 08       	mov    0x8(%rsp),%rbx
  402c5b:	48 8b 6c 24 10       	mov    0x10(%rsp),%rbp
  402c60:	4c 8b 64 24 18       	mov    0x18(%rsp),%r12
  402c65:	4c 8b 6c 24 20       	mov    0x20(%rsp),%r13
  402c6a:	4c 8b 74 24 28       	mov    0x28(%rsp),%r14
  402c6f:	4c 8b 7c 24 30       	mov    0x30(%rsp),%r15
  402c74:	48 83 c4 38          	add    $0x38,%rsp
  402c78:	c3                   	retq   
  402c79:	0f 1f 00             	nopl   (%rax)

Disassembly of section .fini:

0000000000402c7c <_fini>:
  402c7c:	48 83 ec 08          	sub    $0x8,%rsp
  402c80:	48 83 c4 08          	add    $0x8,%rsp
  402c84:	c3                   	retq   
